; Listing generated by Microsoft (R) Optimizing Compiler Version 19.29.30153.0 

	TITLE	C:\TouchGFXProjects\WheelListDemo\build\Debug\obj\BitmapDatabase.obj
	.686P
	.XMM
	include listing.inc
	.model	flat

INCLUDELIB MSVCRTD
INCLUDELIB OLDNAMES

EXTRN	?image_border_default@@3QBEB:BYTE		; image_border_default
EXTRN	?image_border_small@@3QBEB:BYTE			; image_border_small
EXTRN	?image_exit@@3QBEB:BYTE				; image_exit
EXTRN	?image_label_stm32cubef0@@3QBEB:BYTE		; image_label_stm32cubef0
EXTRN	?image_label_stm32cubef0_large@@3QBEB:BYTE	; image_label_stm32cubef0_large
EXTRN	?image_label_stm32cubef0_small@@3QBEB:BYTE	; image_label_stm32cubef0_small
EXTRN	?image_label_stm32cubef1@@3QBEB:BYTE		; image_label_stm32cubef1
EXTRN	?image_label_stm32cubef1_large@@3QBEB:BYTE	; image_label_stm32cubef1_large
EXTRN	?image_label_stm32cubef1_small@@3QBEB:BYTE	; image_label_stm32cubef1_small
EXTRN	?image_label_stm32cubef2@@3QBEB:BYTE		; image_label_stm32cubef2
EXTRN	?image_label_stm32cubef2_large@@3QBEB:BYTE	; image_label_stm32cubef2_large
EXTRN	?image_label_stm32cubef2_small@@3QBEB:BYTE	; image_label_stm32cubef2_small
EXTRN	?image_label_stm32cubef3@@3QBEB:BYTE		; image_label_stm32cubef3
EXTRN	?image_label_stm32cubef3_large@@3QBEB:BYTE	; image_label_stm32cubef3_large
EXTRN	?image_label_stm32cubef3_small@@3QBEB:BYTE	; image_label_stm32cubef3_small
EXTRN	?image_label_stm32cubef4@@3QBEB:BYTE		; image_label_stm32cubef4
EXTRN	?image_label_stm32cubef4_large@@3QBEB:BYTE	; image_label_stm32cubef4_large
EXTRN	?image_label_stm32cubef4_small@@3QBEB:BYTE	; image_label_stm32cubef4_small
EXTRN	?image_label_stm32cubef7@@3QBEB:BYTE		; image_label_stm32cubef7
EXTRN	?image_label_stm32cubef7_large@@3QBEB:BYTE	; image_label_stm32cubef7_large
EXTRN	?image_label_stm32cubef7_small@@3QBEB:BYTE	; image_label_stm32cubef7_small
EXTRN	?image_label_stm32cubeg0@@3QBEB:BYTE		; image_label_stm32cubeg0
EXTRN	?image_label_stm32cubeg0_large@@3QBEB:BYTE	; image_label_stm32cubeg0_large
EXTRN	?image_label_stm32cubeg0_small@@3QBEB:BYTE	; image_label_stm32cubeg0_small
EXTRN	?image_label_stm32cubeh7@@3QBEB:BYTE		; image_label_stm32cubeh7
EXTRN	?image_label_stm32cubeh7_large@@3QBEB:BYTE	; image_label_stm32cubeh7_large
EXTRN	?image_label_stm32cubeh7_small@@3QBEB:BYTE	; image_label_stm32cubeh7_small
EXTRN	?image_label_stm32cubel0@@3QBEB:BYTE		; image_label_stm32cubel0
EXTRN	?image_label_stm32cubel0_large@@3QBEB:BYTE	; image_label_stm32cubel0_large
EXTRN	?image_label_stm32cubel0_small@@3QBEB:BYTE	; image_label_stm32cubel0_small
EXTRN	?image_label_stm32cubel1@@3QBEB:BYTE		; image_label_stm32cubel1
EXTRN	?image_label_stm32cubel1_large@@3QBEB:BYTE	; image_label_stm32cubel1_large
EXTRN	?image_label_stm32cubel1_small@@3QBEB:BYTE	; image_label_stm32cubel1_small
EXTRN	?image_label_stm32cubel4@@3QBEB:BYTE		; image_label_stm32cubel4
EXTRN	?image_label_stm32cubel4_large@@3QBEB:BYTE	; image_label_stm32cubel4_large
EXTRN	?image_label_stm32cubel4_small@@3QBEB:BYTE	; image_label_stm32cubel4_small
EXTRN	?image_label_stm32cubemp1@@3QBEB:BYTE		; image_label_stm32cubemp1
EXTRN	?image_label_stm32cubemp1_large@@3QBEB:BYTE	; image_label_stm32cubemp1_large
EXTRN	?image_label_stm32cubemp1_small@@3QBEB:BYTE	; image_label_stm32cubemp1_small
EXTRN	?image_label_stm32cubewb@@3QBEB:BYTE		; image_label_stm32cubewb
EXTRN	?image_label_stm32cubewb_large@@3QBEB:BYTE	; image_label_stm32cubewb_large
EXTRN	?image_label_stm32cubewb_small@@3QBEB:BYTE	; image_label_stm32cubewb_small
EXTRN	?image_label_stm32cubewl@@3QBEB:BYTE		; image_label_stm32cubewl
EXTRN	?image_label_stm32cubewl_large@@3QBEB:BYTE	; image_label_stm32cubewl_large
EXTRN	?image_label_stm32cubewl_small@@3QBEB:BYTE	; image_label_stm32cubewl_small
EXTRN	?image_light_theme_images_backgrounds_320x240_shady_waves@@3QBEB:BYTE ; image_light_theme_images_backgrounds_320x240_shady_waves
EXTRN	?image_light_theme_images_backgrounds_320x240_shady_waves_extra_data@@3QBEB:BYTE ; image_light_theme_images_backgrounds_320x240_shady_waves_extra_data
EXTRN	?image_light_theme_images_backgrounds_shattered_rain@@3QBEB:BYTE ; image_light_theme_images_backgrounds_shattered_rain
EXTRN	?image_light_theme_images_backgrounds_shattered_rain_extra_data@@3QBEB:BYTE ; image_light_theme_images_backgrounds_shattered_rain_extra_data
EXTRN	?image_modalbackground@@3QBEB:BYTE		; image_modalbackground
msvcjmc	SEGMENT
__A40FB7BC_Types@hpp DB 01H
__073C98BE_Bitmap@hpp DB 01H
__BF0BE262_BitmapDatabase@cpp DB 01H
msvcjmc	ENDS
CONST	SEGMENT
?bitmap_database@@3QBUBitmapData@Bitmap@touchgfx@@B DD FLAT:?image_border_default@@3QBEB ; bitmap_database
	DD	00H
	DW	0a0H
	DW	059H
	DW	04H
	DW	00H
	DW	098H
	DW	04005H
	DD	FLAT:?image_border_small@@3QBEB
	DD	00H
	DW	08fH
	DW	050H
	DW	04H
	DW	00H
	DW	087H
	DW	04002H
	DD	FLAT:?image_exit@@3QBEB
	DD	00H
	DW	020H
	DW	020H
	DW	0dH
	DW	0cH
	DW	06H
	DW	04007H
	DD	FLAT:?image_label_stm32cubef0@@3QBEB
	DD	00H
	DW	0a0H
	DW	059H
	DW	069H
	DW	010H
	DW	022H
	DW	0401aH
	DD	FLAT:?image_label_stm32cubef0_large@@3QBEB
	DD	00H
	DW	010aH
	DW	094H
	DW	0b0H
	DW	01cH
	DW	03aH
	DW	0402bH
	DD	FLAT:?image_label_stm32cubef0_small@@3QBEB
	DD	00H
	DW	08fH
	DW	050H
	DW	05eH
	DW	0fH
	DW	021H
	DW	04017H
	DD	FLAT:?image_label_stm32cubef1@@3QBEB
	DD	00H
	DW	0a0H
	DW	059H
	DW	069H
	DW	011H
	DW	023H
	DW	04019H
	DD	FLAT:?image_label_stm32cubef1_large@@3QBEB
	DD	00H
	DW	010aH
	DW	095H
	DW	0aeH
	DW	01dH
	DW	03cH
	DW	04029H
	DD	FLAT:?image_label_stm32cubef1_small@@3QBEB
	DD	00H
	DW	08fH
	DW	050H
	DW	05eH
	DW	0fH
	DW	021H
	DW	04017H
	DD	FLAT:?image_label_stm32cubef2@@3QBEB
	DD	00H
	DW	0a0H
	DW	059H
	DW	069H
	DW	011H
	DW	023H
	DW	04019H
	DD	FLAT:?image_label_stm32cubef2_large@@3QBEB
	DD	00H
	DW	010aH
	DW	095H
	DW	0b1H
	DW	01dH
	DW	039H
	DW	0402bH
	DD	FLAT:?image_label_stm32cubef2_small@@3QBEB
	DD	00H
	DW	08fH
	DW	050H
	DW	05eH
	DW	0fH
	DW	021H
	DW	04017H
	DD	FLAT:?image_label_stm32cubef3@@3QBEB
	DD	00H
	DW	0a0H
	DW	059H
	DW	069H
	DW	011H
	DW	023H
	DW	04019H
	DD	FLAT:?image_label_stm32cubef3_large@@3QBEB
	DD	00H
	DW	010aH
	DW	095H
	DW	0b1H
	DW	01dH
	DW	039H
	DW	0402bH
	DD	FLAT:?image_label_stm32cubef3_small@@3QBEB
	DD	00H
	DW	08fH
	DW	050H
	DW	05eH
	DW	0fH
	DW	021H
	DW	04017H
	DD	FLAT:?image_label_stm32cubef4@@3QBEB
	DD	00H
	DW	0a0H
	DW	059H
	DW	069H
	DW	010H
	DW	022H
	DW	0401aH
	DD	FLAT:?image_label_stm32cubef4_large@@3QBEB
	DD	00H
	DW	010aH
	DW	094H
	DW	0b1H
	DW	01cH
	DW	039H
	DW	0402cH
	DD	FLAT:?image_label_stm32cubef4_small@@3QBEB
	DD	00H
	DW	08fH
	DW	050H
	DW	05eH
	DW	0fH
	DW	021H
	DW	04017H
	DD	FLAT:?image_label_stm32cubef7@@3QBEB
	DD	00H
	DW	0a0H
	DW	059H
	DW	06aH
	DW	011H
	DW	022H
	DW	0401aH
	DD	FLAT:?image_label_stm32cubef7_large@@3QBEB
	DD	00H
	DW	010aH
	DW	095H
	DW	0afH
	DW	01dH
	DW	03bH
	DW	0402aH
	DD	FLAT:?image_label_stm32cubef7_small@@3QBEB
	DD	00H
	DW	08fH
	DW	050H
	DW	05dH
	DW	0fH
	DW	021H
	DW	04017H
	DD	FLAT:?image_label_stm32cubeg0@@3QBEB
	DD	00H
	DW	0a0H
	DW	059H
	DW	06aH
	DW	011H
	DW	022H
	DW	0401aH
	DD	FLAT:?image_label_stm32cubeg0_large@@3QBEB
	DD	00H
	DW	010aH
	DW	094H
	DW	0b0H
	DW	01dH
	DW	03bH
	DW	0402aH
	DD	FLAT:?image_label_stm32cubeg0_small@@3QBEB
	DD	00H
	DW	08fH
	DW	050H
	DW	05eH
	DW	0fH
	DW	021H
	DW	04017H
	DD	FLAT:?image_label_stm32cubeh7@@3QBEB
	DD	00H
	DW	0a0H
	DW	059H
	DW	069H
	DW	010H
	DW	022H
	DW	0401aH
	DD	FLAT:?image_label_stm32cubeh7_large@@3QBEB
	DD	00H
	DW	010aH
	DW	094H
	DW	0b1H
	DW	01cH
	DW	039H
	DW	0402cH
	DD	FLAT:?image_label_stm32cubeh7_small@@3QBEB
	DD	00H
	DW	08fH
	DW	050H
	DW	05eH
	DW	0fH
	DW	021H
	DW	04017H
	DD	FLAT:?image_label_stm32cubel0@@3QBEB
	DD	00H
	DW	099H
	DW	05dH
	DW	067H
	DW	013H
	DW	022H
	DW	0401aH
	DD	FLAT:?image_label_stm32cubel0_large@@3QBEB
	DD	00H
	DW	0ffH
	DW	09bH
	DW	0a9H
	DW	020H
	DW	03cH
	DW	04029H
	DD	FLAT:?image_label_stm32cubel0_small@@3QBEB
	DD	00H
	DW	08aH
	DW	054H
	DW	05cH
	DW	010H
	DW	020H
	DW	04019H
	DD	FLAT:?image_label_stm32cubel1@@3QBEB
	DD	00H
	DW	0a0H
	DW	059H
	DW	06aH
	DW	010H
	DW	021H
	DW	0401bH
	DD	FLAT:?image_label_stm32cubel1_large@@3QBEB
	DD	00H
	DW	010aH
	DW	094H
	DW	0b2H
	DW	01bH
	DW	036H
	DW	0402eH
	DD	FLAT:?image_label_stm32cubel1_small@@3QBEB
	DD	00H
	DW	08fH
	DW	050H
	DW	05eH
	DW	0fH
	DW	021H
	DW	04017H
	DD	FLAT:?image_label_stm32cubel4@@3QBEB
	DD	00H
	DW	0a0H
	DW	059H
	DW	069H
	DW	010H
	DW	022H
	DW	0401aH
	DD	FLAT:?image_label_stm32cubel4_large@@3QBEB
	DD	00H
	DW	010aH
	DW	094H
	DW	0b0H
	DW	01cH
	DW	03aH
	DW	0402bH
	DD	FLAT:?image_label_stm32cubel4_small@@3QBEB
	DD	00H
	DW	08fH
	DW	050H
	DW	05eH
	DW	0fH
	DW	021H
	DW	04017H
	DD	FLAT:?image_label_stm32cubemp1@@3QBEB
	DD	00H
	DW	0a0H
	DW	059H
	DW	06aH
	DW	011H
	DW	022H
	DW	0401aH
	DD	FLAT:?image_label_stm32cubemp1_large@@3QBEB
	DD	00H
	DW	010aH
	DW	094H
	DW	0adH
	DW	01dH
	DW	03eH
	DW	04028H
	DD	FLAT:?image_label_stm32cubemp1_small@@3QBEB
	DD	00H
	DW	08fH
	DW	050H
	DW	05cH
	DW	0fH
	DW	023H
	DW	04016H
	DD	FLAT:?image_label_stm32cubewb@@3QBEB
	DD	00H
	DW	0afH
	DW	059H
	DW	073H
	DW	0dH
	DW	01fH
	DW	0401cH
	DD	FLAT:?image_label_stm32cubewb_large@@3QBEB
	DD	00H
	DW	0124H
	DW	094H
	DW	0baH
	DW	018H
	DW	03eH
	DW	04028H
	DD	FLAT:?image_label_stm32cubewb_small@@3QBEB
	DD	00H
	DW	08fH
	DW	050H
	DW	05cH
	DW	0cH
	DW	01dH
	DW	04018H
	DD	FLAT:?image_label_stm32cubewl@@3QBEB
	DD	00H
	DW	0a0H
	DW	059H
	DW	06aH
	DW	011H
	DW	022H
	DW	0401aH
	DD	FLAT:?image_label_stm32cubewl_large@@3QBEB
	DD	00H
	DW	010aH
	DW	094H
	DW	0b0H
	DW	01dH
	DW	03bH
	DW	0402aH
	DD	FLAT:?image_label_stm32cubewl_small@@3QBEB
	DD	00H
	DW	08fH
	DW	050H
	DW	05eH
	DW	0fH
	DW	021H
	DW	04017H
	DD	FLAT:?image_light_theme_images_backgrounds_320x240_shady_waves@@3QBEB
	DD	FLAT:?image_light_theme_images_backgrounds_320x240_shady_waves_extra_data@@3QBEB
	DW	0140H
	DW	0f0H
	DW	00H
	DW	00H
	DW	02140H
	DW	060f0H
	DD	FLAT:?image_light_theme_images_backgrounds_shattered_rain@@3QBEB
	DD	FLAT:?image_light_theme_images_backgrounds_shattered_rain_extra_data@@3QBEB
	DW	0b4H
	DW	0b4H
	DW	00H
	DW	00H
	DW	020b4H
	DW	060b4H
	DD	FLAT:?image_modalbackground@@3QBEB
	DD	00H
	DW	012cH
	DW	0b4H
	DW	0aH
	DW	02H
	DW	0118H
	DW	040b0H
CONST	ENDS
PUBLIC	?getInstance@BitmapDatabase@@YAPBUBitmapData@Bitmap@touchgfx@@XZ ; BitmapDatabase::getInstance
PUBLIC	?getInstanceSize@BitmapDatabase@@YAGXZ		; BitmapDatabase::getInstanceSize
PUBLIC	__JustMyCode_Default
EXTRN	@__CheckForDebuggerJustMyCode@4:PROC
EXTRN	__RTC_CheckEsp:PROC
EXTRN	__RTC_InitBase:PROC
EXTRN	__RTC_Shutdown:PROC
;	COMDAT rtc$TMZ
rtc$TMZ	SEGMENT
__RTC_Shutdown.rtc$TMZ DD FLAT:__RTC_Shutdown
rtc$TMZ	ENDS
;	COMDAT rtc$IMZ
rtc$IMZ	SEGMENT
__RTC_InitBase.rtc$IMZ DD FLAT:__RTC_InitBase
rtc$IMZ	ENDS
; Function compile flags: /Odt
;	COMDAT __JustMyCode_Default
_TEXT	SEGMENT
__JustMyCode_Default PROC				; COMDAT
	push	ebp
	mov	ebp, esp
	pop	ebp
	ret	0
__JustMyCode_Default ENDP
_TEXT	ENDS
; Function compile flags: /Odtp /RTCsu /ZI
;	COMDAT ?getInstanceSize@BitmapDatabase@@YAGXZ
_TEXT	SEGMENT
?getInstanceSize@BitmapDatabase@@YAGXZ PROC		; BitmapDatabase::getInstanceSize, COMDAT
; File C:\TouchGFXProjects\WheelListDemo\generated\images\src\BitmapDatabase.cpp
; Line 117
	push	ebp
	mov	ebp, esp
	sub	esp, 192				; 000000c0H
	push	ebx
	push	esi
	push	edi
	mov	edi, ebp
	xor	ecx, ecx
	mov	eax, -858993460				; ccccccccH
	rep stosd
	mov	ecx, OFFSET __BF0BE262_BitmapDatabase@cpp
	call	@__CheckForDebuggerJustMyCode@4
; Line 118
	mov	eax, 48					; 00000030H
; Line 119
	pop	edi
	pop	esi
	pop	ebx
	add	esp, 192				; 000000c0H
	cmp	ebp, esp
	call	__RTC_CheckEsp
	mov	esp, ebp
	pop	ebp
	ret	0
?getInstanceSize@BitmapDatabase@@YAGXZ ENDP		; BitmapDatabase::getInstanceSize
_TEXT	ENDS
; Function compile flags: /Odtp /RTCsu /ZI
;	COMDAT ?getInstance@BitmapDatabase@@YAPBUBitmapData@Bitmap@touchgfx@@XZ
_TEXT	SEGMENT
?getInstance@BitmapDatabase@@YAPBUBitmapData@Bitmap@touchgfx@@XZ PROC ; BitmapDatabase::getInstance, COMDAT
; File C:\TouchGFXProjects\WheelListDemo\generated\images\src\BitmapDatabase.cpp
; Line 112
	push	ebp
	mov	ebp, esp
	sub	esp, 192				; 000000c0H
	push	ebx
	push	esi
	push	edi
	mov	edi, ebp
	xor	ecx, ecx
	mov	eax, -858993460				; ccccccccH
	rep stosd
	mov	ecx, OFFSET __BF0BE262_BitmapDatabase@cpp
	call	@__CheckForDebuggerJustMyCode@4
; Line 113
	mov	eax, OFFSET ?bitmap_database@@3QBUBitmapData@Bitmap@touchgfx@@B
; Line 114
	pop	edi
	pop	esi
	pop	ebx
	add	esp, 192				; 000000c0H
	cmp	ebp, esp
	call	__RTC_CheckEsp
	mov	esp, ebp
	pop	ebp
	ret	0
?getInstance@BitmapDatabase@@YAPBUBitmapData@Bitmap@touchgfx@@XZ ENDP ; BitmapDatabase::getInstance
_TEXT	ENDS
END
