; Listing generated by Microsoft (R) Optimizing Compiler Version 19.29.30153.0 

	TITLE	C:\TouchGFXProjects\WheelListDemo\build\Debug\obj\image_light_theme_images_widgets_button_icon_rounded_micro_outline_pressed.obj
	.686P
	.XMM
	include listing.inc
	.model	flat

INCLUDELIB MSVCRTD
INCLUDELIB OLDNAMES

PUBLIC	?image_light_theme_images_widgets_button_icon_rounded_micro_outline_pressed@@3QBEB ; image_light_theme_images_widgets_button_icon_rounded_micro_outline_pressed
CONST	SEGMENT
?image_light_theme_images_widgets_button_icon_rounded_micro_outline_pressed@@3QBEB DB 00H ; image_light_theme_images_widgets_button_icon_rounded_micro_outline_pressed
	DB	00H
	DB	00H
	DB	00H
	DB	00H
	DB	00H
	DB	00H
	DB	00H
	DB	00H
	DB	00H
	DB	00H
	DB	00H
	DB	00H
	DB	00H
	DB	00H
	DB	00H
	DB	00H
	DB	00H
	DB	00H
	DB	00H
	DB	00H
	DB	00H
	DB	00H
	DB	00H
	DB	00H
	DB	00H
	DB	00H
	DB	00H
	DB	050H
	DB	020H
	DB	010H
	DB	010H
	DB	048H
	DB	024H
	DB	00H
	DB	082H
	DB	048H
	DB	024H
	DB	00H
	DB	0beH
	DB	048H
	DB	024H
	DB	00H
	DB	0dfH
	DB	048H
	DB	024H
	DB	00H
	DB	0ffH
	DB	048H
	DB	024H
	DB	00H
	DB	0ffH
	DB	048H
	DB	024H
	DB	00H
	DB	0ffH
	DB	048H
	DB	024H
	DB	00H
	DB	0ffH
	DB	048H
	DB	024H
	DB	00H
	DB	0ffH
	DB	048H
	DB	024H
	DB	00H
	DB	0ffH
	DB	048H
	DB	024H
	DB	00H
	DB	0ffH
	DB	048H
	DB	024H
	DB	00H
	DB	0ffH
	DB	048H
	DB	024H
	DB	00H
	DB	0ffH
	DB	048H
	DB	024H
	DB	00H
	DB	0ffH
	DB	048H
	DB	024H
	DB	00H
	DB	0ffH
	DB	048H
	DB	024H
	DB	00H
	DB	0ffH
	DB	048H
	DB	024H
	DB	00H
	DB	0ffH
	DB	048H
	DB	024H
	DB	00H
	DB	0ffH
	DB	050H
	DB	024H
	DB	00H
	DB	0efH
	DB	048H
	DB	024H
	DB	00H
	DB	0beH
	DB	048H
	DB	020H
	DB	00H
	DB	06dH
	DB	050H
	DB	020H
	DB	08H
	DB	020H
	DB	00H
	DB	00H
	DB	00H
	DB	00H
	DB	00H
	DB	00H
	DB	00H
	DB	00H
	DB	00H
	DB	00H
	DB	00H
	DB	00H
	DB	00H
	DB	00H
	DB	00H
	DB	00H
	DB	00H
	DB	00H
	DB	00H
	DB	00H
	DB	00H
	DB	00H
	DB	00H
	DB	00H
	DB	00H
	DB	00H
	DB	00H
	DB	00H
	DB	00H
	DB	00H
	DB	00H
	DB	00H
	DB	00H
	DB	00H
	DB	00H
	DB	00H
	DB	00H
	DB	00H
	DB	00H
	DB	00H
	DB	00H
	DB	00H
	DB	00H
	DB	00H
	DB	00H
	DB	00H
	DB	00H
	DB	00H
	DB	050H
	DB	028H
	DB	08H
	DB	020H
	DB	048H
	DB	024H
	DB	00H
	DB	0beH
	DB	048H
	DB	024H
	DB	00H
	DB	0ffH
	DB	050H
	DB	024H
	DB	08H
	DB	0ffH
	DB	048H
	DB	020H
	DB	00H
	DB	0ffH
	DB	050H
	DB	024H
	DB	08H
	DB	0ffH
	DB	050H
	DB	020H
	DB	08H
	DB	0ffH
	DB	048H
	DB	024H
	DB	00H
	DB	0ffH
	DB	050H
	DB	020H
	DB	08H
	DB	0ffH
	DB	050H
	DB	024H
	DB	08H
	DB	0ffH
	DB	048H
	DB	020H
	DB	00H
	DB	0ffH
	DB	050H
	DB	024H
	DB	08H
	DB	0ffH
	DB	050H
	DB	020H
	DB	08H
	DB	0ffH
	DB	048H
	DB	024H
	DB	00H
	DB	0ffH
	DB	050H
	DB	020H
	DB	08H
	DB	0ffH
	DB	050H
	DB	024H
	DB	08H
	DB	0ffH
	DB	048H
	DB	020H
	DB	00H
	DB	0ffH
	DB	050H
	DB	024H
	DB	08H
	DB	0ffH
	DB	050H
	DB	020H
	DB	08H
	DB	0ffH
	DB	048H
	DB	024H
	DB	00H
	DB	0ffH
	DB	048H
	DB	024H
	DB	08H
	DB	0ffH
	DB	050H
	DB	020H
	DB	08H
	DB	0ffH
	DB	048H
	DB	024H
	DB	00H
	DB	0ffH
	DB	048H
	DB	024H
	DB	00H
	DB	0ffH
	DB	048H
	DB	020H
	DB	00H
	DB	09eH
	DB	050H
	DB	020H
	DB	08H
	DB	020H
	DB	00H
	DB	00H
	DB	00H
	DB	00H
	DB	00H
	DB	00H
	DB	00H
	DB	00H
	DB	00H
	DB	00H
	DB	00H
	DB	00H
	DB	00H
	DB	00H
	DB	00H
	DB	00H
	DB	00H
	DB	00H
	DB	00H
	DB	00H
	DB	00H
	DB	00H
	DB	00H
	DB	00H
	DB	00H
	DB	00H
	DB	00H
	DB	00H
	DB	00H
	DB	00H
	DB	00H
	DB	00H
	DB	00H
	DB	00H
	DB	00H
	DB	00H
	DB	048H
	DB	024H
	DB	08H
	DB	071H
	DB	050H
	DB	024H
	DB	00H
	DB	0efH
	DB	048H
	DB	020H
	DB	00H
	DB	0ffH
	DB	048H
	DB	024H
	DB	08H
	DB	0ffH
	DB	050H
	DB	024H
	DB	00H
	DB	0ffH
	DB	048H
	DB	024H
	DB	00H
	DB	0ffH
	DB	048H
	DB	024H
	DB	08H
	DB	0ffH
	DB	050H
	DB	024H
	DB	00H
	DB	0ffH
	DB	048H
	DB	020H
	DB	00H
	DB	0ffH
	DB	048H
	DB	024H
	DB	08H
	DB	0ffH
	DB	050H
	DB	024H
	DB	00H
	DB	0ffH
	DB	048H
	DB	024H
	DB	00H
	DB	0ffH
	DB	048H
	DB	020H
	DB	08H
	DB	0ffH
	DB	050H
	DB	024H
	DB	00H
	DB	0ffH
	DB	048H
	DB	024H
	DB	00H
	DB	0ffH
	DB	048H
	DB	024H
	DB	08H
	DB	0ffH
	DB	050H
	DB	020H
	DB	00H
	DB	0ffH
	DB	048H
	DB	024H
	DB	00H
	DB	0ffH
	DB	048H
	DB	024H
	DB	08H
	DB	0ffH
	DB	050H
	DB	024H
	DB	00H
	DB	0ffH
	DB	048H
	DB	020H
	DB	00H
	DB	0ffH
	DB	048H
	DB	024H
	DB	08H
	DB	0ffH
	DB	050H
	DB	024H
	DB	00H
	DB	0ffH
	DB	050H
	DB	024H
	DB	08H
	DB	0ffH
	DB	048H
	DB	024H
	DB	08H
	DB	0ffH
	DB	050H
	DB	024H
	DB	00H
	DB	0ffH
	DB	048H
	DB	024H
	DB	00H
	DB	0efH
	DB	048H
	DB	020H
	DB	00H
	DB	071H
	DB	00H
	DB	00H
	DB	00H
	DB	00H
	DB	00H
	DB	00H
	DB	00H
	DB	00H
	DB	00H
	DB	00H
	DB	00H
	DB	00H
	DB	00H
	DB	00H
	DB	00H
	DB	00H
	DB	00H
	DB	00H
	DB	00H
	DB	00H
	DB	00H
	DB	00H
	DB	00H
	DB	00H
	DB	00H
	DB	00H
	DB	00H
	DB	00H
	DB	048H
	DB	024H
	DB	00H
	DB	082H
	DB	048H
	DB	024H
	DB	00H
	DB	0ffH
	DB	050H
	DB	024H
	DB	08H
	DB	0ffH
	DB	048H
	DB	024H
	DB	00H
	DB	0ffH
	DB	050H
	DB	020H
	DB	08H
	DB	0ffH
	DB	048H
	DB	024H
	DB	00H
	DB	0ffH
	DB	048H
	DB	024H
	DB	00H
	DB	0ffH
	DB	050H
	DB	020H
	DB	08H
	DB	0ffH
	DB	048H
	DB	024H
	DB	00H
	DB	0ffH
	DB	048H
	DB	024H
	DB	00H
	DB	0ffH
	DB	048H
	DB	024H
	DB	00H
	DB	0ffH
	DB	050H
	DB	024H
	DB	00H
	DB	0ffH
	DB	048H
	DB	024H
	DB	08H
	DB	0ffH
	DB	048H
	DB	024H
	DB	00H
	DB	0ffH
	DB	050H
	DB	024H
	DB	00H
	DB	0ffH
	DB	048H
	DB	024H
	DB	08H
	DB	0ffH
	DB	048H
	DB	024H
	DB	00H
	DB	0ffH
	DB	050H
	DB	024H
	DB	00H
	DB	0ffH
	DB	048H
	DB	024H
	DB	08H
	DB	0ffH
	DB	048H
	DB	024H
	DB	00H
	DB	0ffH
	DB	050H
	DB	024H
	DB	00H
	DB	0ffH
	DB	048H
	DB	024H
	DB	08H
	DB	0ffH
	DB	048H
	DB	020H
	DB	00H
	DB	0ffH
	DB	048H
	DB	024H
	DB	00H
	DB	0ffH
	DB	048H
	DB	024H
	DB	00H
	DB	0ffH
	DB	050H
	DB	020H
	DB	08H
	DB	0ffH
	DB	048H
	DB	024H
	DB	00H
	DB	0ffH
	DB	050H
	DB	024H
	DB	08H
	DB	0ffH
	DB	048H
	DB	024H
	DB	08H
	DB	0ffH
	DB	050H
	DB	024H
	DB	00H
	DB	082H
	DB	00H
	DB	00H
	DB	00H
	DB	00H
	DB	00H
	DB	00H
	DB	00H
	DB	00H
	DB	00H
	DB	00H
	DB	00H
	DB	00H
	DB	00H
	DB	00H
	DB	00H
	DB	00H
	DB	00H
	DB	00H
	DB	00H
	DB	00H
	DB	048H
	DB	024H
	DB	08H
	DB	071H
	DB	050H
	DB	024H
	DB	00H
	DB	0ffH
	DB	048H
	DB	020H
	DB	00H
	DB	0ffH
	DB	048H
	DB	024H
	DB	08H
	DB	0ffH
	DB	050H
	DB	024H
	DB	00H
	DB	0ffH
	DB	048H
	DB	024H
	DB	00H
	DB	0ffH
	DB	048H
	DB	020H
	DB	08H
	DB	0ffH
	DB	050H
	DB	024H
	DB	00H
	DB	0ffH
	DB	048H
	DB	024H
	DB	00H
	DB	0ffH
	DB	050H
	DB	020H
	DB	08H
	DB	0ffH
	DB	048H
	DB	024H
	DB	08H
	DB	0ffH
	DB	050H
	DB	024H
	DB	00H
	DB	0ffH
	DB	048H
	DB	020H
	DB	08H
	DB	0ffH
	DB	048H
	DB	020H
	DB	00H
	DB	0ffH
	DB	050H
	DB	024H
	DB	00H
	DB	0ffH
	DB	048H
	DB	020H
	DB	08H
	DB	0ffH
	DB	048H
	DB	024H
	DB	00H
	DB	0ffH
	DB	050H
	DB	020H
	DB	00H
	DB	0ffH
	DB	048H
	DB	024H
	DB	08H
	DB	0ffH
	DB	048H
	DB	020H
	DB	00H
	DB	0ffH
	DB	050H
	DB	020H
	DB	00H
	DB	0ffH
	DB	048H
	DB	024H
	DB	08H
	DB	0ffH
	DB	050H
	DB	024H
	DB	00H
	DB	0ffH
	DB	050H
	DB	024H
	DB	00H
	DB	0ffH
	DB	048H
	DB	020H
	DB	08H
	DB	0ffH
	DB	048H
	DB	024H
	DB	00H
	DB	0ffH
	DB	050H
	DB	024H
	DB	00H
	DB	0ffH
	DB	048H
	DB	020H
	DB	00H
	DB	0ffH
	DB	048H
	DB	024H
	DB	08H
	DB	0ffH
	DB	050H
	DB	024H
	DB	00H
	DB	0ffH
	DB	048H
	DB	024H
	DB	00H
	DB	0ffH
	DB	048H
	DB	020H
	DB	00H
	DB	071H
	DB	00H
	DB	00H
	DB	00H
	DB	00H
	DB	00H
	DB	00H
	DB	00H
	DB	00H
	DB	00H
	DB	00H
	DB	00H
	DB	00H
	DB	050H
	DB	028H
	DB	08H
	DB	020H
	DB	050H
	DB	024H
	DB	00H
	DB	0efH
	DB	048H
	DB	024H
	DB	08H
	DB	0ffH
	DB	050H
	DB	024H
	DB	00H
	DB	0ffH
	DB	048H
	DB	020H
	DB	00H
	DB	0ffH
	DB	048H
	DB	024H
	DB	08H
	DB	0ffH
	DB	050H
	DB	024H
	DB	00H
	DB	0ffH
	DB	048H
	DB	024H
	DB	00H
	DB	0efH
	DB	048H
	DB	020H
	DB	00H
	DB	07dH
	DB	048H
	DB	020H
	DB	00H
	DB	020H
	DB	00H
	DB	00H
	DB	00H
	DB	00H
	DB	00H
	DB	00H
	DB	00H
	DB	00H
	DB	00H
	DB	00H
	DB	00H
	DB	00H
	DB	00H
	DB	00H
	DB	00H
	DB	00H
	DB	00H
	DB	00H
	DB	00H
	DB	00H
	DB	00H
	DB	00H
	DB	00H
	DB	00H
	DB	00H
	DB	00H
	DB	00H
	DB	00H
	DB	00H
	DB	00H
	DB	00H
	DB	00H
	DB	00H
	DB	00H
	DB	00H
	DB	00H
	DB	00H
	DB	00H
	DB	00H
	DB	00H
	DB	00H
	DB	00H
	DB	00H
	DB	00H
	DB	00H
	DB	00H
	DB	00H
	DB	00H
	DB	00H
	DB	00H
	DB	00H
	DB	00H
	DB	00H
	DB	00H
	DB	00H
	DB	00H
	DB	048H
	DB	020H
	DB	00H
	DB	030H
	DB	048H
	DB	020H
	DB	08H
	DB	061H
	DB	048H
	DB	024H
	DB	00H
	DB	0dfH
	DB	050H
	DB	024H
	DB	00H
	DB	0ffH
	DB	048H
	DB	024H
	DB	08H
	DB	0ffH
	DB	048H
	DB	020H
	DB	00H
	DB	0ffH
	DB	050H
	DB	024H
	DB	00H
	DB	0ffH
	DB	048H
	DB	024H
	DB	08H
	DB	0ffH
	DB	048H
	DB	024H
	DB	08H
	DB	0efH
	DB	050H
	DB	020H
	DB	08H
	DB	020H
	DB	00H
	DB	00H
	DB	00H
	DB	00H
	DB	00H
	DB	00H
	DB	00H
	DB	00H
	DB	048H
	DB	024H
	DB	00H
	DB	09eH
	DB	048H
	DB	020H
	DB	00H
	DB	0ffH
	DB	048H
	DB	024H
	DB	08H
	DB	0ffH
	DB	050H
	DB	024H
	DB	00H
	DB	0ffH
	DB	048H
	DB	024H
	DB	00H
	DB	0ffH
	DB	048H
	DB	020H
	DB	08H
	DB	0ffH
	DB	050H
	DB	024H
	DB	00H
	DB	09eH
	DB	040H
	DB	020H
	DB	00H
	DB	010H
	DB	00H
	DB	00H
	DB	00H
	DB	00H
	DB	00H
	DB	00H
	DB	00H
	DB	00H
	DB	00H
	DB	00H
	DB	00H
	DB	00H
	DB	00H
	DB	00H
	DB	00H
	DB	00H
	DB	00H
	DB	00H
	DB	00H
	DB	00H
	DB	00H
	DB	00H
	DB	00H
	DB	00H
	DB	00H
	DB	00H
	DB	00H
	DB	00H
	DB	00H
	DB	00H
	DB	00H
	DB	00H
	DB	00H
	DB	00H
	DB	00H
	DB	00H
	DB	00H
	DB	00H
	DB	00H
	DB	00H
	DB	00H
	DB	00H
	DB	00H
	DB	00H
	DB	00H
	DB	00H
	DB	00H
	DB	00H
	DB	00H
	DB	00H
	DB	00H
	DB	00H
	DB	00H
	DB	00H
	DB	00H
	DB	00H
	DB	00H
	DB	00H
	DB	00H
	DB	00H
	DB	00H
	DB	00H
	DB	00H
	DB	00H
	DB	00H
	DB	00H
	DB	00H
	DB	00H
	DB	00H
	DB	00H
	DB	00H
	DB	00H
	DB	050H
	DB	020H
	DB	00H
	DB	010H
	DB	050H
	DB	020H
	DB	00H
	DB	08eH
	DB	048H
	DB	024H
	DB	08H
	DB	0ffH
	DB	048H
	DB	024H
	DB	00H
	DB	0ffH
	DB	050H
	DB	020H
	DB	00H
	DB	0ffH
	DB	048H
	DB	024H
	DB	08H
	DB	0ffH
	DB	048H
	DB	024H
	DB	00H
	DB	0ffH
	DB	050H
	DB	024H
	DB	00H
	DB	0beH
	DB	00H
	DB	00H
	DB	00H
	DB	00H
	DB	050H
	DB	028H
	DB	08H
	DB	020H
	DB	048H
	DB	024H
	DB	00H
	DB	0ffH
	DB	050H
	DB	024H
	DB	08H
	DB	0ffH
	DB	048H
	DB	020H
	DB	00H
	DB	0ffH
	DB	048H
	DB	024H
	DB	08H
	DB	0ffH
	DB	050H
	DB	024H
	DB	00H
	DB	0ffH
	DB	048H
	DB	020H
	DB	00H
	DB	08eH
	DB	00H
	DB	00H
	DB	00H
	DB	00H
	DB	00H
	DB	00H
	DB	00H
	DB	00H
	DB	00H
	DB	00H
	DB	00H
	DB	00H
	DB	00H
	DB	00H
	DB	00H
	DB	00H
	DB	00H
	DB	00H
	DB	00H
	DB	00H
	DB	00H
	DB	00H
	DB	00H
	DB	00H
	DB	00H
	DB	00H
	DB	00H
	DB	00H
	DB	00H
	DB	00H
	DB	00H
	DB	00H
	DB	00H
	DB	00H
	DB	00H
	DB	00H
	DB	00H
	DB	00H
	DB	00H
	DB	00H
	DB	00H
	DB	00H
	DB	00H
	DB	00H
	DB	00H
	DB	00H
	DB	00H
	DB	00H
	DB	00H
	DB	00H
	DB	00H
	DB	00H
	DB	00H
	DB	00H
	DB	00H
	DB	00H
	DB	00H
	DB	00H
	DB	00H
	DB	00H
	DB	00H
	DB	00H
	DB	00H
	DB	00H
	DB	00H
	DB	00H
	DB	00H
	DB	00H
	DB	00H
	DB	00H
	DB	00H
	DB	00H
	DB	00H
	DB	00H
	DB	00H
	DB	00H
	DB	00H
	DB	00H
	DB	00H
	DB	00H
	DB	00H
	DB	00H
	DB	00H
	DB	00H
	DB	00H
	DB	00H
	DB	00H
	DB	00H
	DB	048H
	DB	024H
	DB	00H
	DB	09eH
	DB	050H
	DB	024H
	DB	08H
	DB	0ffH
	DB	048H
	DB	024H
	DB	00H
	DB	0ffH
	DB	048H
	DB	020H
	DB	00H
	DB	0ffH
	DB	050H
	DB	024H
	DB	00H
	DB	0ffH
	DB	048H
	DB	024H
	DB	08H
	DB	0ffH
	DB	040H
	DB	020H
	DB	00H
	DB	010H
	DB	050H
	DB	020H
	DB	00H
	DB	06dH
	DB	048H
	DB	024H
	DB	00H
	DB	0ffH
	DB	050H
	DB	024H
	DB	08H
	DB	0ffH
	DB	048H
	DB	024H
	DB	00H
	DB	0ffH
	DB	048H
	DB	020H
	DB	00H
	DB	0ffH
	DB	048H
	DB	020H
	DB	08H
	DB	0dfH
	DB	040H
	DB	020H
	DB	00H
	DB	010H
	DB	00H
	DB	00H
	DB	00H
	DB	00H
	DB	00H
	DB	00H
	DB	00H
	DB	00H
	DB	00H
	DB	00H
	DB	00H
	DB	00H
	DB	00H
	DB	00H
	DB	00H
	DB	00H
	DB	00H
	DB	00H
	DB	00H
	DB	00H
	DB	00H
	DB	00H
	DB	00H
	DB	00H
	DB	00H
	DB	00H
	DB	00H
	DB	00H
	DB	00H
	DB	00H
	DB	00H
	DB	00H
	DB	00H
	DB	00H
	DB	00H
	DB	00H
	DB	00H
	DB	00H
	DB	00H
	DB	00H
	DB	00H
	DB	00H
	DB	00H
	DB	00H
	DB	00H
	DB	00H
	DB	00H
	DB	00H
	DB	00H
	DB	00H
	DB	00H
	DB	00H
	DB	00H
	DB	00H
	DB	00H
	DB	00H
	DB	00H
	DB	00H
	DB	00H
	DB	00H
	DB	00H
	DB	00H
	DB	00H
	DB	00H
	DB	00H
	DB	00H
	DB	00H
	DB	00H
	DB	00H
	DB	00H
	DB	00H
	DB	00H
	DB	00H
	DB	00H
	DB	00H
	DB	00H
	DB	00H
	DB	00H
	DB	00H
	DB	00H
	DB	00H
	DB	00H
	DB	00H
	DB	00H
	DB	00H
	DB	00H
	DB	00H
	DB	00H
	DB	050H
	DB	020H
	DB	00H
	DB	010H
	DB	050H
	DB	024H
	DB	08H
	DB	0efH
	DB	048H
	DB	024H
	DB	00H
	DB	0ffH
	DB	050H
	DB	020H
	DB	08H
	DB	0ffH
	DB	048H
	DB	024H
	DB	00H
	DB	0ffH
	DB	048H
	DB	024H
	DB	00H
	DB	0ffH
	DB	048H
	DB	020H
	DB	00H
	DB	07dH
	DB	048H
	DB	024H
	DB	00H
	DB	0beH
	DB	048H
	DB	024H
	DB	08H
	DB	0ffH
	DB	050H
	DB	020H
	DB	00H
	DB	0ffH
	DB	050H
	DB	024H
	DB	00H
	DB	0ffH
	DB	048H
	DB	024H
	DB	08H
	DB	0ffH
	DB	050H
	DB	024H
	DB	00H
	DB	05dH
	DB	00H
	DB	00H
	DB	00H
	DB	00H
	DB	00H
	DB	00H
	DB	00H
	DB	00H
	DB	00H
	DB	00H
	DB	00H
	DB	00H
	DB	00H
	DB	00H
	DB	00H
	DB	00H
	DB	00H
	DB	00H
	DB	00H
	DB	00H
	DB	00H
	DB	00H
	DB	00H
	DB	00H
	DB	00H
	DB	00H
	DB	00H
	DB	00H
	DB	00H
	DB	00H
	DB	00H
	DB	00H
	DB	00H
	DB	00H
	DB	00H
	DB	00H
	DB	00H
	DB	00H
	DB	00H
	DB	00H
	DB	00H
	DB	00H
	DB	00H
	DB	00H
	DB	00H
	DB	00H
	DB	00H
	DB	00H
	DB	00H
	DB	00H
	DB	00H
	DB	00H
	DB	00H
	DB	00H
	DB	00H
	DB	00H
	DB	00H
	DB	00H
	DB	00H
	DB	00H
	DB	00H
	DB	00H
	DB	00H
	DB	00H
	DB	00H
	DB	00H
	DB	00H
	DB	00H
	DB	00H
	DB	00H
	DB	00H
	DB	00H
	DB	00H
	DB	00H
	DB	00H
	DB	00H
	DB	00H
	DB	00H
	DB	00H
	DB	00H
	DB	00H
	DB	00H
	DB	00H
	DB	00H
	DB	00H
	DB	00H
	DB	00H
	DB	00H
	DB	00H
	DB	00H
	DB	00H
	DB	00H
	DB	00H
	DB	00H
	DB	00H
	DB	00H
	DB	048H
	DB	020H
	DB	00H
	DB	082H
	DB	048H
	DB	024H
	DB	00H
	DB	0ffH
	DB	050H
	DB	024H
	DB	08H
	DB	0ffH
	DB	048H
	DB	024H
	DB	08H
	DB	0ffH
	DB	050H
	DB	020H
	DB	00H
	DB	0ffH
	DB	048H
	DB	024H
	DB	00H
	DB	0beH
	DB	048H
	DB	024H
	DB	00H
	DB	0efH
	DB	048H
	DB	024H
	DB	08H
	DB	0ffH
	DB	048H
	DB	024H
	DB	00H
	DB	0ffH
	DB	048H
	DB	024H
	DB	00H
	DB	0ffH
	DB	050H
	DB	024H
	DB	08H
	DB	0ffH
	DB	048H
	DB	020H
	DB	00H
	DB	030H
	DB	00H
	DB	00H
	DB	00H
	DB	00H
	DB	00H
	DB	00H
	DB	00H
	DB	00H
	DB	00H
	DB	00H
	DB	00H
	DB	00H
	DB	00H
	DB	00H
	DB	00H
	DB	00H
	DB	00H
	DB	00H
	DB	00H
	DB	00H
	DB	00H
	DB	00H
	DB	00H
	DB	00H
	DB	00H
	DB	00H
	DB	00H
	DB	00H
	DB	00H
	DB	00H
	DB	00H
	DB	00H
	DB	00H
	DB	00H
	DB	00H
	DB	00H
	DB	00H
	DB	00H
	DB	00H
	DB	00H
	DB	00H
	DB	00H
	DB	00H
	DB	00H
	DB	00H
	DB	00H
	DB	00H
	DB	00H
	DB	00H
	DB	00H
	DB	00H
	DB	00H
	DB	00H
	DB	00H
	DB	00H
	DB	00H
	DB	00H
	DB	00H
	DB	00H
	DB	00H
	DB	00H
	DB	00H
	DB	00H
	DB	00H
	DB	00H
	DB	00H
	DB	00H
	DB	00H
	DB	00H
	DB	00H
	DB	00H
	DB	00H
	DB	00H
	DB	00H
	DB	00H
	DB	00H
	DB	00H
	DB	00H
	DB	00H
	DB	00H
	DB	00H
	DB	00H
	DB	00H
	DB	00H
	DB	00H
	DB	00H
	DB	00H
	DB	00H
	DB	00H
	DB	00H
	DB	00H
	DB	00H
	DB	00H
	DB	00H
	DB	00H
	DB	00H
	DB	048H
	DB	020H
	DB	00H
	DB	020H
	DB	048H
	DB	024H
	DB	00H
	DB	0ffH
	DB	048H
	DB	024H
	DB	00H
	DB	0ffH
	DB	050H
	DB	020H
	DB	08H
	DB	0ffH
	DB	048H
	DB	024H
	DB	00H
	DB	0ffH
	DB	048H
	DB	020H
	DB	00H
	DB	0dfH
	DB	050H
	DB	020H
	DB	00H
	DB	0ffH
	DB	050H
	DB	024H
	DB	00H
	DB	0ffH
	DB	048H
	DB	024H
	DB	08H
	DB	0ffH
	DB	048H
	DB	020H
	DB	00H
	DB	0ffH
	DB	048H
	DB	024H
	DB	00H
	DB	0ffH
	DB	00H
	DB	00H
	DB	00H
	DB	00H
	DB	00H
	DB	00H
	DB	00H
	DB	00H
	DB	00H
	DB	00H
	DB	00H
	DB	00H
	DB	00H
	DB	00H
	DB	00H
	DB	00H
	DB	00H
	DB	00H
	DB	00H
	DB	00H
	DB	00H
	DB	00H
	DB	00H
	DB	00H
	DB	00H
	DB	00H
	DB	00H
	DB	00H
	DB	00H
	DB	00H
	DB	00H
	DB	00H
	DB	00H
	DB	00H
	DB	00H
	DB	00H
	DB	00H
	DB	00H
	DB	00H
	DB	00H
	DB	00H
	DB	00H
	DB	00H
	DB	00H
	DB	00H
	DB	00H
	DB	00H
	DB	00H
	DB	00H
	DB	00H
	DB	00H
	DB	00H
	DB	00H
	DB	00H
	DB	00H
	DB	00H
	DB	00H
	DB	00H
	DB	00H
	DB	00H
	DB	00H
	DB	00H
	DB	00H
	DB	00H
	DB	00H
	DB	00H
	DB	00H
	DB	00H
	DB	00H
	DB	00H
	DB	00H
	DB	00H
	DB	00H
	DB	00H
	DB	00H
	DB	00H
	DB	00H
	DB	00H
	DB	00H
	DB	00H
	DB	00H
	DB	00H
	DB	00H
	DB	00H
	DB	00H
	DB	00H
	DB	00H
	DB	00H
	DB	00H
	DB	00H
	DB	00H
	DB	00H
	DB	00H
	DB	00H
	DB	00H
	DB	00H
	DB	00H
	DB	00H
	DB	00H
	DB	00H
	DB	00H
	DB	00H
	DB	00H
	DB	00H
	DB	050H
	DB	024H
	DB	08H
	DB	0ffH
	DB	048H
	DB	020H
	DB	00H
	DB	0ffH
	DB	050H
	DB	024H
	DB	00H
	DB	0ffH
	DB	048H
	DB	024H
	DB	08H
	DB	0ffH
	DB	048H
	DB	024H
	DB	00H
	DB	0ffH
	DB	048H
	DB	024H
	DB	00H
	DB	0ffH
	DB	048H
	DB	024H
	DB	08H
	DB	0ffH
	DB	050H
	DB	020H
	DB	00H
	DB	0ffH
	DB	050H
	DB	024H
	DB	08H
	DB	0ffH
	DB	048H
	DB	024H
	DB	00H
	DB	0ffH
	DB	00H
	DB	00H
	DB	00H
	DB	00H
	DB	00H
	DB	00H
	DB	00H
	DB	00H
	DB	00H
	DB	00H
	DB	00H
	DB	00H
	DB	00H
	DB	00H
	DB	00H
	DB	00H
	DB	00H
	DB	00H
	DB	00H
	DB	00H
	DB	00H
	DB	00H
	DB	00H
	DB	00H
	DB	00H
	DB	00H
	DB	00H
	DB	00H
	DB	00H
	DB	00H
	DB	00H
	DB	00H
	DB	00H
	DB	00H
	DB	00H
	DB	00H
	DB	00H
	DB	00H
	DB	00H
	DB	00H
	DB	00H
	DB	00H
	DB	00H
	DB	00H
	DB	00H
	DB	00H
	DB	00H
	DB	00H
	DB	00H
	DB	00H
	DB	00H
	DB	00H
	DB	00H
	DB	00H
	DB	00H
	DB	00H
	DB	00H
	DB	00H
	DB	00H
	DB	00H
	DB	00H
	DB	00H
	DB	00H
	DB	00H
	DB	00H
	DB	00H
	DB	00H
	DB	00H
	DB	00H
	DB	00H
	DB	00H
	DB	00H
	DB	00H
	DB	00H
	DB	00H
	DB	00H
	DB	00H
	DB	00H
	DB	00H
	DB	00H
	DB	00H
	DB	00H
	DB	00H
	DB	00H
	DB	00H
	DB	00H
	DB	00H
	DB	00H
	DB	00H
	DB	00H
	DB	00H
	DB	00H
	DB	00H
	DB	00H
	DB	00H
	DB	00H
	DB	00H
	DB	00H
	DB	00H
	DB	00H
	DB	00H
	DB	00H
	DB	00H
	DB	00H
	DB	048H
	DB	024H
	DB	08H
	DB	0ffH
	DB	050H
	DB	024H
	DB	00H
	DB	0ffH
	DB	048H
	DB	024H
	DB	00H
	DB	0ffH
	DB	050H
	DB	024H
	DB	08H
	DB	0ffH
	DB	048H
	DB	024H
	DB	00H
	DB	0ffH
	DB	048H
	DB	024H
	DB	00H
	DB	0ffH
	DB	048H
	DB	024H
	DB	00H
	DB	0ffH
	DB	048H
	DB	024H
	DB	08H
	DB	0ffH
	DB	050H
	DB	020H
	DB	00H
	DB	0ffH
	DB	048H
	DB	024H
	DB	08H
	DB	0ffH
	DB	00H
	DB	00H
	DB	00H
	DB	00H
	DB	00H
	DB	00H
	DB	00H
	DB	00H
	DB	00H
	DB	00H
	DB	00H
	DB	00H
	DB	00H
	DB	00H
	DB	00H
	DB	00H
	DB	00H
	DB	00H
	DB	00H
	DB	00H
	DB	00H
	DB	00H
	DB	00H
	DB	00H
	DB	00H
	DB	00H
	DB	00H
	DB	00H
	DB	00H
	DB	00H
	DB	00H
	DB	00H
	DB	00H
	DB	00H
	DB	00H
	DB	00H
	DB	00H
	DB	00H
	DB	00H
	DB	00H
	DB	00H
	DB	00H
	DB	00H
	DB	00H
	DB	00H
	DB	00H
	DB	00H
	DB	00H
	DB	00H
	DB	00H
	DB	00H
	DB	00H
	DB	00H
	DB	00H
	DB	00H
	DB	00H
	DB	00H
	DB	00H
	DB	00H
	DB	00H
	DB	00H
	DB	00H
	DB	00H
	DB	00H
	DB	00H
	DB	00H
	DB	00H
	DB	00H
	DB	00H
	DB	00H
	DB	00H
	DB	00H
	DB	00H
	DB	00H
	DB	00H
	DB	00H
	DB	00H
	DB	00H
	DB	00H
	DB	00H
	DB	00H
	DB	00H
	DB	00H
	DB	00H
	DB	00H
	DB	00H
	DB	00H
	DB	00H
	DB	00H
	DB	00H
	DB	00H
	DB	00H
	DB	00H
	DB	00H
	DB	00H
	DB	00H
	DB	00H
	DB	00H
	DB	00H
	DB	00H
	DB	00H
	DB	00H
	DB	00H
	DB	00H
	DB	048H
	DB	020H
	DB	00H
	DB	0ffH
	DB	048H
	DB	024H
	DB	08H
	DB	0ffH
	DB	050H
	DB	024H
	DB	00H
	DB	0ffH
	DB	048H
	DB	020H
	DB	00H
	DB	0ffH
	DB	048H
	DB	024H
	DB	08H
	DB	0ffH
	DB	050H
	DB	020H
	DB	00H
	DB	0ffH
	DB	048H
	DB	024H
	DB	08H
	DB	0ffH
	DB	048H
	DB	024H
	DB	00H
	DB	0ffH
	DB	050H
	DB	024H
	DB	00H
	DB	0ffH
	DB	048H
	DB	020H
	DB	00H
	DB	0ffH
	DB	00H
	DB	00H
	DB	00H
	DB	00H
	DB	00H
	DB	00H
	DB	00H
	DB	00H
	DB	00H
	DB	00H
	DB	00H
	DB	00H
	DB	00H
	DB	00H
	DB	00H
	DB	00H
	DB	00H
	DB	00H
	DB	00H
	DB	00H
	DB	00H
	DB	00H
	DB	00H
	DB	00H
	DB	00H
	DB	00H
	DB	00H
	DB	00H
	DB	00H
	DB	00H
	DB	00H
	DB	00H
	DB	00H
	DB	00H
	DB	00H
	DB	00H
	DB	00H
	DB	00H
	DB	00H
	DB	00H
	DB	00H
	DB	00H
	DB	00H
	DB	00H
	DB	00H
	DB	00H
	DB	00H
	DB	00H
	DB	00H
	DB	00H
	DB	00H
	DB	00H
	DB	00H
	DB	00H
	DB	00H
	DB	00H
	DB	00H
	DB	00H
	DB	00H
	DB	00H
	DB	00H
	DB	00H
	DB	00H
	DB	00H
	DB	00H
	DB	00H
	DB	00H
	DB	00H
	DB	00H
	DB	00H
	DB	00H
	DB	00H
	DB	00H
	DB	00H
	DB	00H
	DB	00H
	DB	00H
	DB	00H
	DB	00H
	DB	00H
	DB	00H
	DB	00H
	DB	00H
	DB	00H
	DB	00H
	DB	00H
	DB	00H
	DB	00H
	DB	00H
	DB	00H
	DB	00H
	DB	00H
	DB	00H
	DB	00H
	DB	00H
	DB	00H
	DB	00H
	DB	00H
	DB	00H
	DB	00H
	DB	00H
	DB	00H
	DB	00H
	DB	00H
	DB	050H
	DB	024H
	DB	00H
	DB	0ffH
	DB	048H
	DB	024H
	DB	08H
	DB	0ffH
	DB	048H
	DB	020H
	DB	00H
	DB	0ffH
	DB	050H
	DB	024H
	DB	00H
	DB	0ffH
	DB	048H
	DB	024H
	DB	08H
	DB	0ffH
	DB	048H
	DB	024H
	DB	00H
	DB	0ffH
	DB	050H
	DB	024H
	DB	08H
	DB	0ffH
	DB	048H
	DB	020H
	DB	00H
	DB	0ffH
	DB	048H
	DB	024H
	DB	08H
	DB	0ffH
	DB	050H
	DB	024H
	DB	00H
	DB	0ffH
	DB	00H
	DB	00H
	DB	00H
	DB	00H
	DB	00H
	DB	00H
	DB	00H
	DB	00H
	DB	00H
	DB	00H
	DB	00H
	DB	00H
	DB	00H
	DB	00H
	DB	00H
	DB	00H
	DB	00H
	DB	00H
	DB	00H
	DB	00H
	DB	00H
	DB	00H
	DB	00H
	DB	00H
	DB	00H
	DB	00H
	DB	00H
	DB	00H
	DB	00H
	DB	00H
	DB	00H
	DB	00H
	DB	00H
	DB	00H
	DB	00H
	DB	00H
	DB	00H
	DB	00H
	DB	00H
	DB	00H
	DB	00H
	DB	00H
	DB	00H
	DB	00H
	DB	00H
	DB	00H
	DB	00H
	DB	00H
	DB	00H
	DB	00H
	DB	00H
	DB	00H
	DB	00H
	DB	00H
	DB	00H
	DB	00H
	DB	00H
	DB	00H
	DB	00H
	DB	00H
	DB	00H
	DB	00H
	DB	00H
	DB	00H
	DB	00H
	DB	00H
	DB	00H
	DB	00H
	DB	00H
	DB	00H
	DB	00H
	DB	00H
	DB	00H
	DB	00H
	DB	00H
	DB	00H
	DB	00H
	DB	00H
	DB	00H
	DB	00H
	DB	00H
	DB	00H
	DB	00H
	DB	00H
	DB	00H
	DB	00H
	DB	00H
	DB	00H
	DB	00H
	DB	00H
	DB	00H
	DB	00H
	DB	00H
	DB	00H
	DB	00H
	DB	00H
	DB	00H
	DB	00H
	DB	00H
	DB	00H
	DB	00H
	DB	00H
	DB	00H
	DB	00H
	DB	050H
	DB	024H
	DB	00H
	DB	0ffH
	DB	048H
	DB	024H
	DB	08H
	DB	0ffH
	DB	048H
	DB	024H
	DB	00H
	DB	0ffH
	DB	050H
	DB	020H
	DB	00H
	DB	0ffH
	DB	048H
	DB	024H
	DB	00H
	DB	0ffH
	DB	048H
	DB	024H
	DB	00H
	DB	0ffH
	DB	050H
	DB	024H
	DB	00H
	DB	0ffH
	DB	048H
	DB	024H
	DB	08H
	DB	0ffH
	DB	048H
	DB	024H
	DB	00H
	DB	0ffH
	DB	050H
	DB	024H
	DB	08H
	DB	0ffH
	DB	00H
	DB	00H
	DB	00H
	DB	00H
	DB	00H
	DB	00H
	DB	00H
	DB	00H
	DB	00H
	DB	00H
	DB	00H
	DB	00H
	DB	00H
	DB	00H
	DB	00H
	DB	00H
	DB	00H
	DB	00H
	DB	00H
	DB	00H
	DB	00H
	DB	00H
	DB	00H
	DB	00H
	DB	00H
	DB	00H
	DB	00H
	DB	00H
	DB	00H
	DB	00H
	DB	00H
	DB	00H
	DB	00H
	DB	00H
	DB	00H
	DB	00H
	DB	00H
	DB	00H
	DB	00H
	DB	00H
	DB	00H
	DB	00H
	DB	00H
	DB	00H
	DB	00H
	DB	00H
	DB	00H
	DB	00H
	DB	00H
	DB	00H
	DB	00H
	DB	00H
	DB	00H
	DB	00H
	DB	00H
	DB	00H
	DB	00H
	DB	00H
	DB	00H
	DB	00H
	DB	00H
	DB	00H
	DB	00H
	DB	00H
	DB	00H
	DB	00H
	DB	00H
	DB	00H
	DB	00H
	DB	00H
	DB	00H
	DB	00H
	DB	00H
	DB	00H
	DB	00H
	DB	00H
	DB	00H
	DB	00H
	DB	00H
	DB	00H
	DB	00H
	DB	00H
	DB	00H
	DB	00H
	DB	00H
	DB	00H
	DB	00H
	DB	00H
	DB	00H
	DB	00H
	DB	00H
	DB	00H
	DB	00H
	DB	00H
	DB	00H
	DB	00H
	DB	00H
	DB	00H
	DB	00H
	DB	00H
	DB	00H
	DB	00H
	DB	00H
	DB	00H
	DB	048H
	DB	020H
	DB	08H
	DB	0ffH
	DB	050H
	DB	024H
	DB	00H
	DB	0ffH
	DB	048H
	DB	024H
	DB	08H
	DB	0ffH
	DB	048H
	DB	024H
	DB	08H
	DB	0ffH
	DB	050H
	DB	024H
	DB	00H
	DB	0ffH
	DB	048H
	DB	020H
	DB	00H
	DB	0ffH
	DB	048H
	DB	024H
	DB	08H
	DB	0ffH
	DB	050H
	DB	024H
	DB	00H
	DB	0ffH
	DB	048H
	DB	020H
	DB	00H
	DB	0ffH
	DB	048H
	DB	024H
	DB	08H
	DB	0ffH
	DB	00H
	DB	00H
	DB	00H
	DB	00H
	DB	00H
	DB	00H
	DB	00H
	DB	00H
	DB	00H
	DB	00H
	DB	00H
	DB	00H
	DB	00H
	DB	00H
	DB	00H
	DB	00H
	DB	00H
	DB	00H
	DB	00H
	DB	00H
	DB	00H
	DB	00H
	DB	00H
	DB	00H
	DB	00H
	DB	00H
	DB	00H
	DB	00H
	DB	00H
	DB	00H
	DB	00H
	DB	00H
	DB	00H
	DB	00H
	DB	00H
	DB	00H
	DB	00H
	DB	00H
	DB	00H
	DB	00H
	DB	00H
	DB	00H
	DB	00H
	DB	00H
	DB	00H
	DB	00H
	DB	00H
	DB	00H
	DB	00H
	DB	00H
	DB	00H
	DB	00H
	DB	00H
	DB	00H
	DB	00H
	DB	00H
	DB	00H
	DB	00H
	DB	00H
	DB	00H
	DB	00H
	DB	00H
	DB	00H
	DB	00H
	DB	00H
	DB	00H
	DB	00H
	DB	00H
	DB	00H
	DB	00H
	DB	00H
	DB	00H
	DB	00H
	DB	00H
	DB	00H
	DB	00H
	DB	00H
	DB	00H
	DB	00H
	DB	00H
	DB	00H
	DB	00H
	DB	00H
	DB	00H
	DB	00H
	DB	00H
	DB	00H
	DB	00H
	DB	00H
	DB	00H
	DB	00H
	DB	00H
	DB	00H
	DB	00H
	DB	00H
	DB	00H
	DB	00H
	DB	00H
	DB	00H
	DB	00H
	DB	00H
	DB	00H
	DB	00H
	DB	00H
	DB	048H
	DB	024H
	DB	00H
	DB	0ffH
	DB	050H
	DB	020H
	DB	00H
	DB	0ffH
	DB	048H
	DB	024H
	DB	00H
	DB	0ffH
	DB	048H
	DB	024H
	DB	08H
	DB	0ffH
	DB	050H
	DB	020H
	DB	00H
	DB	0ffH
	DB	048H
	DB	024H
	DB	00H
	DB	0ffH
	DB	050H
	DB	024H
	DB	08H
	DB	0ffH
	DB	048H
	DB	020H
	DB	00H
	DB	0ffH
	DB	050H
	DB	024H
	DB	00H
	DB	0ffH
	DB	048H
	DB	024H
	DB	00H
	DB	0ffH
	DB	00H
	DB	00H
	DB	00H
	DB	00H
	DB	00H
	DB	00H
	DB	00H
	DB	00H
	DB	00H
	DB	00H
	DB	00H
	DB	00H
	DB	00H
	DB	00H
	DB	00H
	DB	00H
	DB	00H
	DB	00H
	DB	00H
	DB	00H
	DB	00H
	DB	00H
	DB	00H
	DB	00H
	DB	00H
	DB	00H
	DB	00H
	DB	00H
	DB	00H
	DB	00H
	DB	00H
	DB	00H
	DB	00H
	DB	00H
	DB	00H
	DB	00H
	DB	00H
	DB	00H
	DB	00H
	DB	00H
	DB	00H
	DB	00H
	DB	00H
	DB	00H
	DB	00H
	DB	00H
	DB	00H
	DB	00H
	DB	00H
	DB	00H
	DB	00H
	DB	00H
	DB	00H
	DB	00H
	DB	00H
	DB	00H
	DB	00H
	DB	00H
	DB	00H
	DB	00H
	DB	00H
	DB	00H
	DB	00H
	DB	00H
	DB	00H
	DB	00H
	DB	00H
	DB	00H
	DB	00H
	DB	00H
	DB	00H
	DB	00H
	DB	00H
	DB	00H
	DB	00H
	DB	00H
	DB	00H
	DB	00H
	DB	00H
	DB	00H
	DB	00H
	DB	00H
	DB	00H
	DB	00H
	DB	00H
	DB	00H
	DB	00H
	DB	00H
	DB	00H
	DB	00H
	DB	00H
	DB	00H
	DB	00H
	DB	00H
	DB	00H
	DB	00H
	DB	00H
	DB	00H
	DB	00H
	DB	00H
	DB	00H
	DB	00H
	DB	00H
	DB	00H
	DB	048H
	DB	024H
	DB	08H
	DB	0ffH
	DB	050H
	DB	024H
	DB	00H
	DB	0ffH
	DB	048H
	DB	024H
	DB	00H
	DB	0ffH
	DB	048H
	DB	020H
	DB	00H
	DB	0ffH
	DB	048H
	DB	024H
	DB	08H
	DB	0ffH
	DB	048H
	DB	024H
	DB	00H
	DB	0ffH
	DB	048H
	DB	024H
	DB	00H
	DB	0ffH
	DB	050H
	DB	020H
	DB	08H
	DB	0ffH
	DB	048H
	DB	024H
	DB	08H
	DB	0ffH
	DB	050H
	DB	024H
	DB	00H
	DB	0ffH
	DB	00H
	DB	00H
	DB	00H
	DB	00H
	DB	00H
	DB	00H
	DB	00H
	DB	00H
	DB	00H
	DB	00H
	DB	00H
	DB	00H
	DB	00H
	DB	00H
	DB	00H
	DB	00H
	DB	00H
	DB	00H
	DB	00H
	DB	00H
	DB	00H
	DB	00H
	DB	00H
	DB	00H
	DB	00H
	DB	00H
	DB	00H
	DB	00H
	DB	00H
	DB	00H
	DB	00H
	DB	00H
	DB	00H
	DB	00H
	DB	00H
	DB	00H
	DB	00H
	DB	00H
	DB	00H
	DB	00H
	DB	00H
	DB	00H
	DB	00H
	DB	00H
	DB	00H
	DB	00H
	DB	00H
	DB	00H
	DB	00H
	DB	00H
	DB	00H
	DB	00H
	DB	00H
	DB	00H
	DB	00H
	DB	00H
	DB	00H
	DB	00H
	DB	00H
	DB	00H
	DB	00H
	DB	00H
	DB	00H
	DB	00H
	DB	00H
	DB	00H
	DB	00H
	DB	00H
	DB	00H
	DB	00H
	DB	00H
	DB	00H
	DB	00H
	DB	00H
	DB	00H
	DB	00H
	DB	00H
	DB	00H
	DB	00H
	DB	00H
	DB	00H
	DB	00H
	DB	00H
	DB	00H
	DB	00H
	DB	00H
	DB	00H
	DB	00H
	DB	00H
	DB	00H
	DB	00H
	DB	00H
	DB	00H
	DB	00H
	DB	00H
	DB	00H
	DB	00H
	DB	00H
	DB	00H
	DB	00H
	DB	00H
	DB	00H
	DB	00H
	DB	00H
	DB	050H
	DB	024H
	DB	00H
	DB	0ffH
	DB	048H
	DB	024H
	DB	08H
	DB	0ffH
	DB	050H
	DB	020H
	DB	08H
	DB	0ffH
	DB	050H
	DB	024H
	DB	00H
	DB	0ffH
	DB	048H
	DB	024H
	DB	00H
	DB	0ffH
	DB	048H
	DB	024H
	DB	00H
	DB	0ffH
	DB	050H
	DB	024H
	DB	00H
	DB	0ffH
	DB	048H
	DB	024H
	DB	08H
	DB	0ffH
	DB	048H
	DB	020H
	DB	00H
	DB	0ffH
	DB	048H
	DB	024H
	DB	00H
	DB	0ffH
	DB	00H
	DB	00H
	DB	00H
	DB	00H
	DB	00H
	DB	00H
	DB	00H
	DB	00H
	DB	00H
	DB	00H
	DB	00H
	DB	00H
	DB	00H
	DB	00H
	DB	00H
	DB	00H
	DB	00H
	DB	00H
	DB	00H
	DB	00H
	DB	00H
	DB	00H
	DB	00H
	DB	00H
	DB	00H
	DB	00H
	DB	00H
	DB	00H
	DB	00H
	DB	00H
	DB	00H
	DB	00H
	DB	00H
	DB	00H
	DB	00H
	DB	00H
	DB	00H
	DB	00H
	DB	00H
	DB	00H
	DB	00H
	DB	00H
	DB	00H
	DB	00H
	DB	00H
	DB	00H
	DB	00H
	DB	00H
	DB	00H
	DB	00H
	DB	00H
	DB	00H
	DB	00H
	DB	00H
	DB	00H
	DB	00H
	DB	00H
	DB	00H
	DB	00H
	DB	00H
	DB	00H
	DB	00H
	DB	00H
	DB	00H
	DB	00H
	DB	00H
	DB	00H
	DB	00H
	DB	00H
	DB	00H
	DB	00H
	DB	00H
	DB	00H
	DB	00H
	DB	00H
	DB	00H
	DB	00H
	DB	00H
	DB	00H
	DB	00H
	DB	00H
	DB	00H
	DB	00H
	DB	00H
	DB	00H
	DB	00H
	DB	00H
	DB	00H
	DB	00H
	DB	00H
	DB	00H
	DB	00H
	DB	00H
	DB	00H
	DB	00H
	DB	00H
	DB	00H
	DB	00H
	DB	00H
	DB	00H
	DB	00H
	DB	00H
	DB	00H
	DB	00H
	DB	048H
	DB	024H
	DB	00H
	DB	0ffH
	DB	048H
	DB	020H
	DB	00H
	DB	0ffH
	DB	048H
	DB	024H
	DB	08H
	DB	0ffH
	DB	050H
	DB	024H
	DB	00H
	DB	0ffH
	DB	048H
	DB	024H
	DB	00H
	DB	0ffH
	DB	048H
	DB	020H
	DB	00H
	DB	0ffH
	DB	050H
	DB	024H
	DB	08H
	DB	0ffH
	DB	048H
	DB	024H
	DB	00H
	DB	0ffH
	DB	050H
	DB	024H
	DB	00H
	DB	0ffH
	DB	048H
	DB	020H
	DB	08H
	DB	0ffH
	DB	00H
	DB	00H
	DB	00H
	DB	00H
	DB	00H
	DB	00H
	DB	00H
	DB	00H
	DB	00H
	DB	00H
	DB	00H
	DB	00H
	DB	00H
	DB	00H
	DB	00H
	DB	00H
	DB	00H
	DB	00H
	DB	00H
	DB	00H
	DB	00H
	DB	00H
	DB	00H
	DB	00H
	DB	00H
	DB	00H
	DB	00H
	DB	00H
	DB	00H
	DB	00H
	DB	00H
	DB	00H
	DB	00H
	DB	00H
	DB	00H
	DB	00H
	DB	00H
	DB	00H
	DB	00H
	DB	00H
	DB	00H
	DB	00H
	DB	00H
	DB	00H
	DB	00H
	DB	00H
	DB	00H
	DB	00H
	DB	00H
	DB	00H
	DB	00H
	DB	00H
	DB	00H
	DB	00H
	DB	00H
	DB	00H
	DB	00H
	DB	00H
	DB	00H
	DB	00H
	DB	00H
	DB	00H
	DB	00H
	DB	00H
	DB	00H
	DB	00H
	DB	00H
	DB	00H
	DB	00H
	DB	00H
	DB	00H
	DB	00H
	DB	00H
	DB	00H
	DB	00H
	DB	00H
	DB	00H
	DB	00H
	DB	00H
	DB	00H
	DB	00H
	DB	00H
	DB	00H
	DB	00H
	DB	00H
	DB	00H
	DB	00H
	DB	00H
	DB	00H
	DB	00H
	DB	00H
	DB	00H
	DB	00H
	DB	00H
	DB	00H
	DB	00H
	DB	00H
	DB	00H
	DB	00H
	DB	00H
	DB	00H
	DB	00H
	DB	00H
	DB	00H
	DB	050H
	DB	024H
	DB	08H
	DB	0ffH
	DB	048H
	DB	024H
	DB	00H
	DB	0ffH
	DB	048H
	DB	024H
	DB	00H
	DB	0ffH
	DB	048H
	DB	020H
	DB	08H
	DB	0ffH
	DB	050H
	DB	024H
	DB	00H
	DB	0ffH
	DB	048H
	DB	024H
	DB	00H
	DB	0ffH
	DB	048H
	DB	020H
	DB	08H
	DB	0ffH
	DB	050H
	DB	024H
	DB	00H
	DB	0ffH
	DB	048H
	DB	024H
	DB	08H
	DB	0ffH
	DB	050H
	DB	024H
	DB	00H
	DB	0ffH
	DB	00H
	DB	00H
	DB	00H
	DB	00H
	DB	00H
	DB	00H
	DB	00H
	DB	00H
	DB	00H
	DB	00H
	DB	00H
	DB	00H
	DB	00H
	DB	00H
	DB	00H
	DB	00H
	DB	00H
	DB	00H
	DB	00H
	DB	00H
	DB	00H
	DB	00H
	DB	00H
	DB	00H
	DB	00H
	DB	00H
	DB	00H
	DB	00H
	DB	00H
	DB	00H
	DB	00H
	DB	00H
	DB	00H
	DB	00H
	DB	00H
	DB	00H
	DB	00H
	DB	00H
	DB	00H
	DB	00H
	DB	00H
	DB	00H
	DB	00H
	DB	00H
	DB	00H
	DB	00H
	DB	00H
	DB	00H
	DB	00H
	DB	00H
	DB	00H
	DB	00H
	DB	00H
	DB	00H
	DB	00H
	DB	00H
	DB	00H
	DB	00H
	DB	00H
	DB	00H
	DB	00H
	DB	00H
	DB	00H
	DB	00H
	DB	00H
	DB	00H
	DB	00H
	DB	00H
	DB	00H
	DB	00H
	DB	00H
	DB	00H
	DB	00H
	DB	00H
	DB	00H
	DB	00H
	DB	00H
	DB	00H
	DB	00H
	DB	00H
	DB	00H
	DB	00H
	DB	00H
	DB	00H
	DB	00H
	DB	00H
	DB	00H
	DB	00H
	DB	00H
	DB	00H
	DB	00H
	DB	00H
	DB	00H
	DB	00H
	DB	00H
	DB	00H
	DB	00H
	DB	00H
	DB	00H
	DB	00H
	DB	00H
	DB	00H
	DB	00H
	DB	00H
	DB	050H
	DB	020H
	DB	08H
	DB	0ffH
	DB	050H
	DB	024H
	DB	00H
	DB	0ffH
	DB	048H
	DB	024H
	DB	00H
	DB	0ffH
	DB	048H
	DB	024H
	DB	08H
	DB	0ffH
	DB	050H
	DB	020H
	DB	00H
	DB	0ffH
	DB	048H
	DB	024H
	DB	00H
	DB	0ffH
	DB	050H
	DB	024H
	DB	00H
	DB	0ffH
	DB	048H
	DB	020H
	DB	08H
	DB	0ffH
	DB	048H
	DB	024H
	DB	00H
	DB	0ffH
	DB	048H
	DB	024H
	DB	00H
	DB	0ffH
	DB	00H
	DB	00H
	DB	00H
	DB	00H
	DB	00H
	DB	00H
	DB	00H
	DB	00H
	DB	00H
	DB	00H
	DB	00H
	DB	00H
	DB	00H
	DB	00H
	DB	00H
	DB	00H
	DB	00H
	DB	00H
	DB	00H
	DB	00H
	DB	00H
	DB	00H
	DB	00H
	DB	00H
	DB	00H
	DB	00H
	DB	00H
	DB	00H
	DB	00H
	DB	00H
	DB	00H
	DB	00H
	DB	00H
	DB	00H
	DB	00H
	DB	00H
	DB	00H
	DB	00H
	DB	00H
	DB	00H
	DB	00H
	DB	00H
	DB	00H
	DB	00H
	DB	00H
	DB	00H
	DB	00H
	DB	00H
	DB	00H
	DB	00H
	DB	00H
	DB	00H
	DB	00H
	DB	00H
	DB	00H
	DB	00H
	DB	00H
	DB	00H
	DB	00H
	DB	00H
	DB	00H
	DB	00H
	DB	00H
	DB	00H
	DB	00H
	DB	00H
	DB	00H
	DB	00H
	DB	00H
	DB	00H
	DB	00H
	DB	00H
	DB	00H
	DB	00H
	DB	00H
	DB	00H
	DB	00H
	DB	00H
	DB	00H
	DB	00H
	DB	00H
	DB	00H
	DB	00H
	DB	00H
	DB	00H
	DB	00H
	DB	00H
	DB	00H
	DB	00H
	DB	00H
	DB	00H
	DB	00H
	DB	00H
	DB	00H
	DB	00H
	DB	00H
	DB	00H
	DB	00H
	DB	00H
	DB	00H
	DB	00H
	DB	00H
	DB	00H
	DB	00H
	DB	048H
	DB	024H
	DB	00H
	DB	0ffH
	DB	048H
	DB	020H
	DB	08H
	DB	0ffH
	DB	050H
	DB	024H
	DB	00H
	DB	0ffH
	DB	048H
	DB	024H
	DB	00H
	DB	0ffH
	DB	048H
	DB	024H
	DB	08H
	DB	0ffH
	DB	048H
	DB	024H
	DB	00H
	DB	0ffH
	DB	050H
	DB	024H
	DB	08H
	DB	0ffH
	DB	048H
	DB	024H
	DB	00H
	DB	0ffH
	DB	050H
	DB	020H
	DB	00H
	DB	0ffH
	DB	048H
	DB	024H
	DB	08H
	DB	0ffH
	DB	00H
	DB	00H
	DB	00H
	DB	00H
	DB	00H
	DB	00H
	DB	00H
	DB	00H
	DB	00H
	DB	00H
	DB	00H
	DB	00H
	DB	00H
	DB	00H
	DB	00H
	DB	00H
	DB	00H
	DB	00H
	DB	00H
	DB	00H
	DB	00H
	DB	00H
	DB	00H
	DB	00H
	DB	00H
	DB	00H
	DB	00H
	DB	00H
	DB	00H
	DB	00H
	DB	00H
	DB	00H
	DB	00H
	DB	00H
	DB	00H
	DB	00H
	DB	00H
	DB	00H
	DB	00H
	DB	00H
	DB	00H
	DB	00H
	DB	00H
	DB	00H
	DB	00H
	DB	00H
	DB	00H
	DB	00H
	DB	00H
	DB	00H
	DB	00H
	DB	00H
	DB	00H
	DB	00H
	DB	00H
	DB	00H
	DB	00H
	DB	00H
	DB	00H
	DB	00H
	DB	00H
	DB	00H
	DB	00H
	DB	00H
	DB	00H
	DB	00H
	DB	00H
	DB	00H
	DB	00H
	DB	00H
	DB	00H
	DB	00H
	DB	00H
	DB	00H
	DB	00H
	DB	00H
	DB	00H
	DB	00H
	DB	00H
	DB	00H
	DB	00H
	DB	00H
	DB	00H
	DB	00H
	DB	00H
	DB	00H
	DB	00H
	DB	00H
	DB	00H
	DB	00H
	DB	00H
	DB	00H
	DB	00H
	DB	00H
	DB	00H
	DB	00H
	DB	00H
	DB	00H
	DB	00H
	DB	00H
	DB	00H
	DB	00H
	DB	00H
	DB	00H
	DB	048H
	DB	024H
	DB	00H
	DB	0ffH
	DB	048H
	DB	024H
	DB	08H
	DB	0ffH
	DB	050H
	DB	020H
	DB	00H
	DB	0ffH
	DB	048H
	DB	024H
	DB	00H
	DB	0ffH
	DB	048H
	DB	024H
	DB	08H
	DB	0ffH
	DB	048H
	DB	024H
	DB	00H
	DB	0dfH
	DB	048H
	DB	024H
	DB	08H
	DB	0ffH
	DB	050H
	DB	024H
	DB	00H
	DB	0ffH
	DB	048H
	DB	024H
	DB	08H
	DB	0ffH
	DB	050H
	DB	020H
	DB	00H
	DB	0ffH
	DB	048H
	DB	020H
	DB	00H
	DB	020H
	DB	00H
	DB	00H
	DB	00H
	DB	00H
	DB	00H
	DB	00H
	DB	00H
	DB	00H
	DB	00H
	DB	00H
	DB	00H
	DB	00H
	DB	00H
	DB	00H
	DB	00H
	DB	00H
	DB	00H
	DB	00H
	DB	00H
	DB	00H
	DB	00H
	DB	00H
	DB	00H
	DB	00H
	DB	00H
	DB	00H
	DB	00H
	DB	00H
	DB	00H
	DB	00H
	DB	00H
	DB	00H
	DB	00H
	DB	00H
	DB	00H
	DB	00H
	DB	00H
	DB	00H
	DB	00H
	DB	00H
	DB	00H
	DB	00H
	DB	00H
	DB	00H
	DB	00H
	DB	00H
	DB	00H
	DB	00H
	DB	00H
	DB	00H
	DB	00H
	DB	00H
	DB	00H
	DB	00H
	DB	00H
	DB	00H
	DB	00H
	DB	00H
	DB	00H
	DB	00H
	DB	00H
	DB	00H
	DB	00H
	DB	00H
	DB	00H
	DB	00H
	DB	00H
	DB	00H
	DB	00H
	DB	00H
	DB	00H
	DB	00H
	DB	00H
	DB	00H
	DB	00H
	DB	00H
	DB	00H
	DB	00H
	DB	00H
	DB	00H
	DB	00H
	DB	00H
	DB	00H
	DB	00H
	DB	00H
	DB	00H
	DB	00H
	DB	00H
	DB	00H
	DB	00H
	DB	00H
	DB	00H
	DB	00H
	DB	00H
	DB	00H
	DB	00H
	DB	050H
	DB	024H
	DB	08H
	DB	030H
	DB	050H
	DB	024H
	DB	00H
	DB	0ffH
	DB	048H
	DB	024H
	DB	00H
	DB	0ffH
	DB	050H
	DB	024H
	DB	08H
	DB	0ffH
	DB	048H
	DB	020H
	DB	00H
	DB	0ffH
	DB	050H
	DB	024H
	DB	00H
	DB	0efH
	DB	048H
	DB	020H
	DB	00H
	DB	0beH
	DB	048H
	DB	024H
	DB	00H
	DB	0ffH
	DB	050H
	DB	020H
	DB	08H
	DB	0ffH
	DB	048H
	DB	024H
	DB	00H
	DB	0ffH
	DB	048H
	DB	024H
	DB	00H
	DB	0ffH
	DB	048H
	DB	020H
	DB	00H
	DB	07dH
	DB	00H
	DB	00H
	DB	00H
	DB	00H
	DB	00H
	DB	00H
	DB	00H
	DB	00H
	DB	00H
	DB	00H
	DB	00H
	DB	00H
	DB	00H
	DB	00H
	DB	00H
	DB	00H
	DB	00H
	DB	00H
	DB	00H
	DB	00H
	DB	00H
	DB	00H
	DB	00H
	DB	00H
	DB	00H
	DB	00H
	DB	00H
	DB	00H
	DB	00H
	DB	00H
	DB	00H
	DB	00H
	DB	00H
	DB	00H
	DB	00H
	DB	00H
	DB	00H
	DB	00H
	DB	00H
	DB	00H
	DB	00H
	DB	00H
	DB	00H
	DB	00H
	DB	00H
	DB	00H
	DB	00H
	DB	00H
	DB	00H
	DB	00H
	DB	00H
	DB	00H
	DB	00H
	DB	00H
	DB	00H
	DB	00H
	DB	00H
	DB	00H
	DB	00H
	DB	00H
	DB	00H
	DB	00H
	DB	00H
	DB	00H
	DB	00H
	DB	00H
	DB	00H
	DB	00H
	DB	00H
	DB	00H
	DB	00H
	DB	00H
	DB	00H
	DB	00H
	DB	00H
	DB	00H
	DB	00H
	DB	00H
	DB	00H
	DB	00H
	DB	00H
	DB	00H
	DB	00H
	DB	00H
	DB	00H
	DB	00H
	DB	00H
	DB	00H
	DB	00H
	DB	00H
	DB	00H
	DB	00H
	DB	00H
	DB	00H
	DB	00H
	DB	00H
	DB	048H
	DB	020H
	DB	00H
	DB	061H
	DB	048H
	DB	024H
	DB	08H
	DB	0ffH
	DB	050H
	DB	024H
	DB	00H
	DB	0ffH
	DB	048H
	DB	024H
	DB	08H
	DB	0ffH
	DB	048H
	DB	024H
	DB	00H
	DB	0ffH
	DB	048H
	DB	024H
	DB	00H
	DB	0beH
	DB	048H
	DB	020H
	DB	00H
	DB	07dH
	DB	050H
	DB	024H
	DB	00H
	DB	0ffH
	DB	048H
	DB	024H
	DB	08H
	DB	0ffH
	DB	050H
	DB	024H
	DB	00H
	DB	0ffH
	DB	048H
	DB	024H
	DB	08H
	DB	0ffH
	DB	050H
	DB	024H
	DB	08H
	DB	0efH
	DB	040H
	DB	020H
	DB	00H
	DB	010H
	DB	00H
	DB	00H
	DB	00H
	DB	00H
	DB	00H
	DB	00H
	DB	00H
	DB	00H
	DB	00H
	DB	00H
	DB	00H
	DB	00H
	DB	00H
	DB	00H
	DB	00H
	DB	00H
	DB	00H
	DB	00H
	DB	00H
	DB	00H
	DB	00H
	DB	00H
	DB	00H
	DB	00H
	DB	00H
	DB	00H
	DB	00H
	DB	00H
	DB	00H
	DB	00H
	DB	00H
	DB	00H
	DB	00H
	DB	00H
	DB	00H
	DB	00H
	DB	00H
	DB	00H
	DB	00H
	DB	00H
	DB	00H
	DB	00H
	DB	00H
	DB	00H
	DB	00H
	DB	00H
	DB	00H
	DB	00H
	DB	00H
	DB	00H
	DB	00H
	DB	00H
	DB	00H
	DB	00H
	DB	00H
	DB	00H
	DB	00H
	DB	00H
	DB	00H
	DB	00H
	DB	00H
	DB	00H
	DB	00H
	DB	00H
	DB	00H
	DB	00H
	DB	00H
	DB	00H
	DB	00H
	DB	00H
	DB	00H
	DB	00H
	DB	00H
	DB	00H
	DB	00H
	DB	00H
	DB	00H
	DB	00H
	DB	00H
	DB	00H
	DB	00H
	DB	00H
	DB	00H
	DB	00H
	DB	00H
	DB	00H
	DB	00H
	DB	00H
	DB	050H
	DB	020H
	DB	010H
	DB	010H
	DB	050H
	DB	024H
	DB	00H
	DB	0dfH
	DB	048H
	DB	024H
	DB	08H
	DB	0ffH
	DB	048H
	DB	020H
	DB	00H
	DB	0ffH
	DB	050H
	DB	020H
	DB	00H
	DB	0ffH
	DB	048H
	DB	024H
	DB	08H
	DB	0ffH
	DB	048H
	DB	020H
	DB	00H
	DB	06dH
	DB	050H
	DB	020H
	DB	00H
	DB	010H
	DB	048H
	DB	024H
	DB	08H
	DB	0ffH
	DB	048H
	DB	024H
	DB	00H
	DB	0ffH
	DB	050H
	DB	020H
	DB	00H
	DB	0ffH
	DB	048H
	DB	024H
	DB	00H
	DB	0ffH
	DB	048H
	DB	024H
	DB	08H
	DB	0ffH
	DB	050H
	DB	024H
	DB	00H
	DB	09eH
	DB	00H
	DB	00H
	DB	00H
	DB	00H
	DB	00H
	DB	00H
	DB	00H
	DB	00H
	DB	00H
	DB	00H
	DB	00H
	DB	00H
	DB	00H
	DB	00H
	DB	00H
	DB	00H
	DB	00H
	DB	00H
	DB	00H
	DB	00H
	DB	00H
	DB	00H
	DB	00H
	DB	00H
	DB	00H
	DB	00H
	DB	00H
	DB	00H
	DB	00H
	DB	00H
	DB	00H
	DB	00H
	DB	00H
	DB	00H
	DB	00H
	DB	00H
	DB	00H
	DB	00H
	DB	00H
	DB	00H
	DB	00H
	DB	00H
	DB	00H
	DB	00H
	DB	00H
	DB	00H
	DB	00H
	DB	00H
	DB	00H
	DB	00H
	DB	00H
	DB	00H
	DB	00H
	DB	00H
	DB	00H
	DB	00H
	DB	00H
	DB	00H
	DB	00H
	DB	00H
	DB	00H
	DB	00H
	DB	00H
	DB	00H
	DB	00H
	DB	00H
	DB	00H
	DB	00H
	DB	00H
	DB	00H
	DB	00H
	DB	00H
	DB	00H
	DB	00H
	DB	00H
	DB	00H
	DB	00H
	DB	00H
	DB	00H
	DB	00H
	DB	00H
	DB	00H
	DB	00H
	DB	00H
	DB	00H
	DB	00H
	DB	00H
	DB	00H
	DB	050H
	DB	024H
	DB	08H
	DB	08eH
	DB	048H
	DB	024H
	DB	00H
	DB	0ffH
	DB	048H
	DB	024H
	DB	00H
	DB	0ffH
	DB	050H
	DB	024H
	DB	08H
	DB	0ffH
	DB	048H
	DB	024H
	DB	00H
	DB	0ffH
	DB	050H
	DB	024H
	DB	08H
	DB	0ffH
	DB	048H
	DB	020H
	DB	00H
	DB	020H
	DB	00H
	DB	00H
	DB	00H
	DB	00H
	DB	048H
	DB	024H
	DB	00H
	DB	0beH
	DB	050H
	DB	024H
	DB	08H
	DB	0ffH
	DB	048H
	DB	020H
	DB	00H
	DB	0ffH
	DB	048H
	DB	024H
	DB	00H
	DB	0ffH
	DB	050H
	DB	024H
	DB	00H
	DB	0ffH
	DB	048H
	DB	020H
	DB	08H
	DB	0ffH
	DB	048H
	DB	020H
	DB	08H
	DB	08eH
	DB	040H
	DB	020H
	DB	00H
	DB	010H
	DB	00H
	DB	00H
	DB	00H
	DB	00H
	DB	00H
	DB	00H
	DB	00H
	DB	00H
	DB	00H
	DB	00H
	DB	00H
	DB	00H
	DB	00H
	DB	00H
	DB	00H
	DB	00H
	DB	00H
	DB	00H
	DB	00H
	DB	00H
	DB	00H
	DB	00H
	DB	00H
	DB	00H
	DB	00H
	DB	00H
	DB	00H
	DB	00H
	DB	00H
	DB	00H
	DB	00H
	DB	00H
	DB	00H
	DB	00H
	DB	00H
	DB	00H
	DB	00H
	DB	00H
	DB	00H
	DB	00H
	DB	00H
	DB	00H
	DB	00H
	DB	00H
	DB	00H
	DB	00H
	DB	00H
	DB	00H
	DB	00H
	DB	00H
	DB	00H
	DB	00H
	DB	00H
	DB	00H
	DB	00H
	DB	00H
	DB	00H
	DB	00H
	DB	00H
	DB	00H
	DB	00H
	DB	00H
	DB	00H
	DB	00H
	DB	00H
	DB	00H
	DB	00H
	DB	00H
	DB	00H
	DB	00H
	DB	00H
	DB	00H
	DB	050H
	DB	020H
	DB	010H
	DB	010H
	DB	048H
	DB	024H
	DB	00H
	DB	09eH
	DB	048H
	DB	024H
	DB	08H
	DB	0ffH
	DB	050H
	DB	020H
	DB	00H
	DB	0ffH
	DB	048H
	DB	024H
	DB	00H
	DB	0ffH
	DB	048H
	DB	024H
	DB	08H
	DB	0ffH
	DB	050H
	DB	024H
	DB	00H
	DB	0ffH
	DB	048H
	DB	020H
	DB	00H
	DB	09eH
	DB	00H
	DB	00H
	DB	00H
	DB	00H
	DB	00H
	DB	00H
	DB	00H
	DB	00H
	DB	048H
	DB	028H
	DB	00H
	DB	020H
	DB	050H
	DB	024H
	DB	00H
	DB	0efH
	DB	048H
	DB	024H
	DB	08H
	DB	0ffH
	DB	050H
	DB	024H
	DB	08H
	DB	0ffH
	DB	048H
	DB	024H
	DB	00H
	DB	0ffH
	DB	048H
	DB	024H
	DB	00H
	DB	0ffH
	DB	050H
	DB	024H
	DB	00H
	DB	0ffH
	DB	048H
	DB	020H
	DB	00H
	DB	0dfH
	DB	050H
	DB	024H
	DB	08H
	DB	061H
	DB	048H
	DB	024H
	DB	08H
	DB	030H
	DB	00H
	DB	00H
	DB	00H
	DB	00H
	DB	00H
	DB	00H
	DB	00H
	DB	00H
	DB	00H
	DB	00H
	DB	00H
	DB	00H
	DB	00H
	DB	00H
	DB	00H
	DB	00H
	DB	00H
	DB	00H
	DB	00H
	DB	00H
	DB	00H
	DB	00H
	DB	00H
	DB	00H
	DB	00H
	DB	00H
	DB	00H
	DB	00H
	DB	00H
	DB	00H
	DB	00H
	DB	00H
	DB	00H
	DB	00H
	DB	00H
	DB	00H
	DB	00H
	DB	00H
	DB	00H
	DB	00H
	DB	00H
	DB	00H
	DB	00H
	DB	00H
	DB	00H
	DB	00H
	DB	00H
	DB	00H
	DB	00H
	DB	00H
	DB	00H
	DB	00H
	DB	00H
	DB	00H
	DB	00H
	DB	00H
	DB	050H
	DB	020H
	DB	08H
	DB	020H
	DB	050H
	DB	024H
	DB	08H
	DB	082H
	DB	050H
	DB	024H
	DB	00H
	DB	0efH
	DB	048H
	DB	024H
	DB	00H
	DB	0ffH
	DB	048H
	DB	020H
	DB	08H
	DB	0ffH
	DB	050H
	DB	024H
	DB	00H
	DB	0ffH
	DB	048H
	DB	020H
	DB	08H
	DB	0ffH
	DB	048H
	DB	024H
	DB	00H
	DB	0ffH
	DB	050H
	DB	020H
	DB	00H
	DB	0efH
	DB	048H
	DB	020H
	DB	00H
	DB	020H
	DB	00H
	DB	00H
	DB	00H
	DB	00H
	DB	00H
	DB	00H
	DB	00H
	DB	00H
	DB	00H
	DB	00H
	DB	00H
	DB	00H
	DB	048H
	DB	024H
	DB	00H
	DB	071H
	DB	048H
	DB	020H
	DB	00H
	DB	0ffH
	DB	050H
	DB	024H
	DB	08H
	DB	0ffH
	DB	048H
	DB	020H
	DB	00H
	DB	0ffH
	DB	050H
	DB	024H
	DB	08H
	DB	0ffH
	DB	048H
	DB	024H
	DB	00H
	DB	0ffH
	DB	048H
	DB	024H
	DB	00H
	DB	0ffH
	DB	050H
	DB	024H
	DB	00H
	DB	0ffH
	DB	048H
	DB	024H
	DB	00H
	DB	0ffH
	DB	048H
	DB	024H
	DB	00H
	DB	0ffH
	DB	050H
	DB	024H
	DB	08H
	DB	0ffH
	DB	048H
	DB	024H
	DB	00H
	DB	0ffH
	DB	048H
	DB	024H
	DB	00H
	DB	0ffH
	DB	050H
	DB	024H
	DB	08H
	DB	0ffH
	DB	048H
	DB	024H
	DB	00H
	DB	0ffH
	DB	048H
	DB	024H
	DB	08H
	DB	0ffH
	DB	050H
	DB	024H
	DB	00H
	DB	0ffH
	DB	048H
	DB	024H
	DB	08H
	DB	0ffH
	DB	048H
	DB	024H
	DB	00H
	DB	0ffH
	DB	050H
	DB	024H
	DB	00H
	DB	0ffH
	DB	048H
	DB	024H
	DB	08H
	DB	0ffH
	DB	048H
	DB	024H
	DB	00H
	DB	0ffH
	DB	050H
	DB	024H
	DB	00H
	DB	0ffH
	DB	048H
	DB	024H
	DB	08H
	DB	0ffH
	DB	048H
	DB	024H
	DB	00H
	DB	0ffH
	DB	050H
	DB	020H
	DB	00H
	DB	0ffH
	DB	048H
	DB	024H
	DB	08H
	DB	0ffH
	DB	050H
	DB	024H
	DB	00H
	DB	0ffH
	DB	048H
	DB	024H
	DB	00H
	DB	0ffH
	DB	050H
	DB	024H
	DB	08H
	DB	0ffH
	DB	048H
	DB	024H
	DB	00H
	DB	0ffH
	DB	048H
	DB	020H
	DB	00H
	DB	06dH
	DB	00H
	DB	00H
	DB	00H
	DB	00H
	DB	00H
	DB	00H
	DB	00H
	DB	00H
	DB	00H
	DB	00H
	DB	00H
	DB	00H
	DB	00H
	DB	00H
	DB	00H
	DB	00H
	DB	00H
	DB	00H
	DB	00H
	DB	00H
	DB	048H
	DB	020H
	DB	00H
	DB	07dH
	DB	048H
	DB	024H
	DB	00H
	DB	0ffH
	DB	050H
	DB	024H
	DB	08H
	DB	0ffH
	DB	048H
	DB	020H
	DB	00H
	DB	0ffH
	DB	048H
	DB	024H
	DB	08H
	DB	0ffH
	DB	050H
	DB	024H
	DB	08H
	DB	0ffH
	DB	048H
	DB	020H
	DB	00H
	DB	0ffH
	DB	048H
	DB	024H
	DB	08H
	DB	0ffH
	DB	050H
	DB	024H
	DB	00H
	DB	0ffH
	DB	048H
	DB	020H
	DB	00H
	DB	0ffH
	DB	050H
	DB	024H
	DB	08H
	DB	0ffH
	DB	048H
	DB	020H
	DB	00H
	DB	0ffH
	DB	050H
	DB	024H
	DB	00H
	DB	0ffH
	DB	048H
	DB	020H
	DB	08H
	DB	0ffH
	DB	048H
	DB	024H
	DB	00H
	DB	0ffH
	DB	050H
	DB	020H
	DB	00H
	DB	0ffH
	DB	048H
	DB	024H
	DB	08H
	DB	0ffH
	DB	050H
	DB	024H
	DB	00H
	DB	0ffH
	DB	048H
	DB	020H
	DB	08H
	DB	0ffH
	DB	050H
	DB	024H
	DB	00H
	DB	0ffH
	DB	048H
	DB	020H
	DB	08H
	DB	0ffH
	DB	048H
	DB	024H
	DB	00H
	DB	0ffH
	DB	050H
	DB	024H
	DB	00H
	DB	0ffH
	DB	048H
	DB	020H
	DB	08H
	DB	0ffH
	DB	048H
	DB	024H
	DB	00H
	DB	0ffH
	DB	050H
	DB	024H
	DB	08H
	DB	0ffH
	DB	048H
	DB	024H
	DB	00H
	DB	0ffH
	DB	048H
	DB	020H
	DB	00H
	DB	0ffH
	DB	050H
	DB	024H
	DB	08H
	DB	0ffH
	DB	048H
	DB	020H
	DB	00H
	DB	082H
	DB	00H
	DB	00H
	DB	00H
	DB	00H
	DB	00H
	DB	00H
	DB	00H
	DB	00H
	DB	00H
	DB	00H
	DB	00H
	DB	00H
	DB	00H
	DB	00H
	DB	00H
	DB	00H
	DB	00H
	DB	00H
	DB	00H
	DB	00H
	DB	00H
	DB	00H
	DB	00H
	DB	00H
	DB	00H
	DB	00H
	DB	00H
	DB	00H
	DB	050H
	DB	024H
	DB	00H
	DB	071H
	DB	050H
	DB	024H
	DB	00H
	DB	0efH
	DB	048H
	DB	024H
	DB	00H
	DB	0ffH
	DB	048H
	DB	024H
	DB	00H
	DB	0ffH
	DB	050H
	DB	020H
	DB	08H
	DB	0ffH
	DB	048H
	DB	024H
	DB	00H
	DB	0ffH
	DB	050H
	DB	024H
	DB	08H
	DB	0ffH
	DB	048H
	DB	020H
	DB	00H
	DB	0ffH
	DB	048H
	DB	024H
	DB	08H
	DB	0ffH
	DB	050H
	DB	024H
	DB	08H
	DB	0ffH
	DB	048H
	DB	024H
	DB	00H
	DB	0ffH
	DB	048H
	DB	020H
	DB	00H
	DB	0ffH
	DB	050H
	DB	024H
	DB	08H
	DB	0ffH
	DB	048H
	DB	024H
	DB	00H
	DB	0ffH
	DB	048H
	DB	024H
	DB	00H
	DB	0ffH
	DB	050H
	DB	020H
	DB	08H
	DB	0ffH
	DB	048H
	DB	024H
	DB	00H
	DB	0ffH
	DB	048H
	DB	024H
	DB	00H
	DB	0ffH
	DB	050H
	DB	020H
	DB	08H
	DB	0ffH
	DB	048H
	DB	024H
	DB	00H
	DB	0ffH
	DB	048H
	DB	024H
	DB	08H
	DB	0ffH
	DB	050H
	DB	020H
	DB	00H
	DB	0ffH
	DB	048H
	DB	024H
	DB	00H
	DB	0ffH
	DB	048H
	DB	024H
	DB	08H
	DB	0ffH
	DB	050H
	DB	024H
	DB	00H
	DB	0ffH
	DB	048H
	DB	020H
	DB	08H
	DB	0ffH
	DB	048H
	DB	024H
	DB	00H
	DB	0efH
	DB	048H
	DB	020H
	DB	00H
	DB	06dH
	DB	00H
	DB	00H
	DB	00H
	DB	00H
	DB	00H
	DB	00H
	DB	00H
	DB	00H
	DB	00H
	DB	00H
	DB	00H
	DB	00H
	DB	00H
	DB	00H
	DB	00H
	DB	00H
	DB	00H
	DB	00H
	DB	00H
	DB	00H
	DB	00H
	DB	00H
	DB	00H
	DB	00H
	DB	00H
	DB	00H
	DB	00H
	DB	00H
	DB	00H
	DB	00H
	DB	00H
	DB	00H
	DB	00H
	DB	00H
	DB	00H
	DB	00H
	DB	048H
	DB	028H
	DB	00H
	DB	020H
	DB	048H
	DB	024H
	DB	00H
	DB	09eH
	DB	050H
	DB	024H
	DB	08H
	DB	0ffH
	DB	048H
	DB	024H
	DB	00H
	DB	0ffH
	DB	048H
	DB	024H
	DB	00H
	DB	0ffH
	DB	050H
	DB	024H
	DB	00H
	DB	0ffH
	DB	048H
	DB	024H
	DB	08H
	DB	0ffH
	DB	048H
	DB	024H
	DB	00H
	DB	0ffH
	DB	050H
	DB	024H
	DB	00H
	DB	0ffH
	DB	048H
	DB	024H
	DB	08H
	DB	0ffH
	DB	048H
	DB	024H
	DB	00H
	DB	0ffH
	DB	050H
	DB	024H
	DB	08H
	DB	0ffH
	DB	050H
	DB	024H
	DB	00H
	DB	0ffH
	DB	048H
	DB	024H
	DB	00H
	DB	0ffH
	DB	048H
	DB	024H
	DB	08H
	DB	0ffH
	DB	050H
	DB	024H
	DB	00H
	DB	0ffH
	DB	048H
	DB	024H
	DB	00H
	DB	0ffH
	DB	048H
	DB	024H
	DB	08H
	DB	0ffH
	DB	050H
	DB	024H
	DB	00H
	DB	0ffH
	DB	048H
	DB	024H
	DB	00H
	DB	0ffH
	DB	050H
	DB	024H
	DB	08H
	DB	0ffH
	DB	048H
	DB	024H
	DB	00H
	DB	0ffH
	DB	048H
	DB	020H
	DB	00H
	DB	0ffH
	DB	050H
	DB	024H
	DB	08H
	DB	0ffH
	DB	048H
	DB	024H
	DB	00H
	DB	0beH
	DB	048H
	DB	020H
	DB	00H
	DB	020H
	DB	00H
	DB	00H
	DB	00H
	DB	00H
	DB	00H
	DB	00H
	DB	00H
	DB	00H
	DB	00H
	DB	00H
	DB	00H
	DB	00H
	DB	00H
	DB	00H
	DB	00H
	DB	00H
	DB	00H
	DB	00H
	DB	00H
	DB	00H
	DB	00H
	DB	00H
	DB	00H
	DB	00H
	DB	00H
	DB	00H
	DB	00H
	DB	00H
	DB	00H
	DB	00H
	DB	00H
	DB	00H
	DB	00H
	DB	00H
	DB	00H
	DB	00H
	DB	00H
	DB	00H
	DB	00H
	DB	00H
	DB	00H
	DB	00H
	DB	00H
	DB	00H
	DB	00H
	DB	00H
	DB	00H
	DB	00H
	DB	048H
	DB	028H
	DB	00H
	DB	020H
	DB	050H
	DB	020H
	DB	00H
	DB	071H
	DB	048H
	DB	020H
	DB	08H
	DB	0beH
	DB	048H
	DB	024H
	DB	00H
	DB	0efH
	DB	050H
	DB	020H
	DB	00H
	DB	0ffH
	DB	048H
	DB	020H
	DB	00H
	DB	0ffH
	DB	050H
	DB	024H
	DB	00H
	DB	0ffH
	DB	048H
	DB	020H
	DB	08H
	DB	0ffH
	DB	048H
	DB	024H
	DB	00H
	DB	0ffH
	DB	050H
	DB	020H
	DB	00H
	DB	0ffH
	DB	048H
	DB	020H
	DB	08H
	DB	0ffH
	DB	048H
	DB	024H
	DB	00H
	DB	0ffH
	DB	050H
	DB	020H
	DB	08H
	DB	0ffH
	DB	048H
	DB	024H
	DB	00H
	DB	0ffH
	DB	050H
	DB	020H
	DB	00H
	DB	0ffH
	DB	048H
	DB	024H
	DB	08H
	DB	0ffH
	DB	048H
	DB	020H
	DB	00H
	DB	0ffH
	DB	050H
	DB	024H
	DB	00H
	DB	0ffH
	DB	048H
	DB	024H
	DB	00H
	DB	0dfH
	DB	048H
	DB	020H
	DB	08H
	DB	0beH
	DB	048H
	DB	020H
	DB	00H
	DB	07dH
	DB	040H
	DB	020H
	DB	00H
	DB	010H
	DB	00H
	DB	00H
	DB	00H
	DB	00H
	DB	00H
	DB	00H
	DB	00H
	DB	00H
	DB	00H
	DB	00H
	DB	00H
	DB	00H
	DB	00H
	DB	00H
	DB	00H
	DB	00H
	DB	00H
	DB	00H
	DB	00H
	DB	00H
	DB	00H
	DB	00H
	DB	00H
	DB	00H
	DB	00H
	DB	00H
	DB	00H
	DB	00H
CONST	ENDS
END
